ARM GAS  C:\Users\basil\AppData\Local\Temp\cca7mGXf.s 			page 1


   1              		.cpu cortex-m4
   2              		.eabi_attribute 27, 1
   3              		.eabi_attribute 28, 1
   4              		.eabi_attribute 20, 1
   5              		.eabi_attribute 21, 1
   6              		.eabi_attribute 23, 3
   7              		.eabi_attribute 24, 1
   8              		.eabi_attribute 25, 1
   9              		.eabi_attribute 26, 1
  10              		.eabi_attribute 30, 2
  11              		.eabi_attribute 34, 1
  12              		.eabi_attribute 18, 4
  13              		.file	"main.c"
  14              		.text
  15              	.Ltext0:
  16              		.cfi_sections	.debug_frame
  17              		.section	.text.chprintf.constprop.0,"ax",%progbits
  18              		.align	1
  19              		.p2align 4,,15
  20              		.syntax unified
  21              		.thumb
  22              		.thumb_func
  23              		.fpu fpv4-sp-d16
  24              		.type	chprintf.constprop.0, %function
  25              	chprintf.constprop.0:
  26              	.LFB264:
  27              		.file 1 "../../lib/e-puck2_main-processor/ChibiOS//os/hal/lib/streams/chprintf.h"
  28              		.loc 1 69 0
  29              		.cfi_startproc
  30              		@ args = 4, pretend = 12, frame = 8
  31              		@ frame_needed = 0, uses_anonymous_args = 1
  32              	.LVL0:
  33 0000 0EB4     		push	{r1, r2, r3}
  34              		.cfi_def_cfa_offset 12
  35              		.cfi_offset 1, -12
  36              		.cfi_offset 2, -8
  37              		.cfi_offset 3, -4
  38 0002 10B5     		push	{r4, lr}
  39              		.cfi_def_cfa_offset 20
  40              		.cfi_offset 4, -20
  41              		.cfi_offset 14, -16
  42 0004 83B0     		sub	sp, sp, #12
  43              		.cfi_def_cfa_offset 32
  44              		.loc 1 69 0
  45 0006 05AA     		add	r2, sp, #20
  46 0008 094C     		ldr	r4, .L6
  47 000a 52F8041B 		ldr	r1, [r2], #4
  48 000e 2368     		ldr	r3, [r4]
  49              		.loc 1 74 0
  50 0010 0848     		ldr	r0, .L6+4
  51              	.LVL1:
  52              		.loc 1 73 0
  53 0012 0092     		str	r2, [sp]
  54              		.loc 1 69 0
  55 0014 0193     		str	r3, [sp, #4]
  56              	.LVL2:
  57              		.loc 1 74 0
ARM GAS  C:\Users\basil\AppData\Local\Temp\cca7mGXf.s 			page 2


  58 0016 FFF7FEFF 		bl	chvprintf
  59              	.LVL3:
  60              		.loc 1 78 0
  61 001a 019A     		ldr	r2, [sp, #4]
  62 001c 2368     		ldr	r3, [r4]
  63 001e 9A42     		cmp	r2, r3
  64 0020 04D1     		bne	.L5
  65 0022 03B0     		add	sp, sp, #12
  66              		.cfi_remember_state
  67              		.cfi_def_cfa_offset 20
  68              		@ sp needed
  69 0024 BDE81040 		pop	{r4, lr}
  70              		.cfi_restore 14
  71              		.cfi_restore 4
  72              		.cfi_def_cfa_offset 12
  73 0028 03B0     		add	sp, sp, #12
  74              		.cfi_restore 3
  75              		.cfi_restore 2
  76              		.cfi_restore 1
  77              		.cfi_def_cfa_offset 0
  78 002a 7047     		bx	lr
  79              	.L5:
  80              		.cfi_restore_state
  81 002c FFF7FEFF 		bl	__stack_chk_fail
  82              	.LVL4:
  83              	.L7:
  84              		.align	2
  85              	.L6:
  86 0030 00000000 		.word	__stack_chk_guard
  87 0034 00000000 		.word	SD3
  88              		.cfi_endproc
  89              	.LFE264:
  90              		.size	chprintf.constprop.0, .-chprintf.constprop.0
  91              		.section	.text.SendUint8ToComputer,"ax",%progbits
  92              		.align	1
  93              		.p2align 4,,15
  94              		.global	SendUint8ToComputer
  95              		.syntax unified
  96              		.thumb
  97              		.thumb_func
  98              		.fpu fpv4-sp-d16
  99              		.type	SendUint8ToComputer, %function
 100              	SendUint8ToComputer:
 101              	.LFB260:
 102              		.file 2 "main.c"
 103              		.loc 2 31 0
 104              		.cfi_startproc
 105              		@ args = 0, pretend = 0, frame = 16
 106              		@ frame_needed = 0, uses_anonymous_args = 0
 107              	.LVL5:
 108 0000 70B5     		push	{r4, r5, r6, lr}
 109              		.cfi_def_cfa_offset 16
 110              		.cfi_offset 4, -16
 111              		.cfi_offset 5, -12
 112              		.cfi_offset 6, -8
 113              		.cfi_offset 14, -4
 114              		.loc 2 32 0
ARM GAS  C:\Users\basil\AppData\Local\Temp\cca7mGXf.s 			page 3


 115 0002 124C     		ldr	r4, .L12
 116              		.loc 2 31 0
 117 0004 124D     		ldr	r5, .L12+4
 118              		.loc 2 32 0
 119 0006 2368     		ldr	r3, [r4]
 120              		.loc 2 31 0
 121 0008 2A68     		ldr	r2, [r5]
 122 000a 84B0     		sub	sp, sp, #16
 123              		.cfi_def_cfa_offset 32
 124              		.loc 2 31 0
 125 000c 0646     		mov	r6, r0
 126 000e ADF80610 		strh	r1, [sp, #6]	@ movhi
 127              		.loc 2 32 0
 128 0012 1B68     		ldr	r3, [r3]
 129 0014 0F49     		ldr	r1, .L12+8
 130              	.LVL6:
 131              		.loc 2 31 0
 132 0016 0392     		str	r2, [sp, #12]
 133              		.loc 2 32 0
 134 0018 2046     		mov	r0, r4
 135              	.LVL7:
 136 001a 0522     		movs	r2, #5
 137 001c 9847     		blx	r3
 138              	.LVL8:
 139              		.loc 2 33 0
 140 001e 2368     		ldr	r3, [r4]
 141 0020 0222     		movs	r2, #2
 142 0022 1B68     		ldr	r3, [r3]
 143 0024 0DF10601 		add	r1, sp, #6
 144 0028 2046     		mov	r0, r4
 145 002a 9847     		blx	r3
 146              	.LVL9:
 147              		.loc 2 34 0
 148 002c 2368     		ldr	r3, [r4]
 149 002e BDF80620 		ldrh	r2, [sp, #6]
 150 0032 1B68     		ldr	r3, [r3]
 151 0034 3146     		mov	r1, r6
 152 0036 2046     		mov	r0, r4
 153 0038 9847     		blx	r3
 154              	.LVL10:
 155              		.loc 2 35 0
 156 003a 039A     		ldr	r2, [sp, #12]
 157 003c 2B68     		ldr	r3, [r5]
 158 003e 9A42     		cmp	r2, r3
 159 0040 01D1     		bne	.L11
 160 0042 04B0     		add	sp, sp, #16
 161              		.cfi_remember_state
 162              		.cfi_def_cfa_offset 16
 163              		@ sp needed
 164 0044 70BD     		pop	{r4, r5, r6, pc}
 165              	.LVL11:
 166              	.L11:
 167              		.cfi_restore_state
 168 0046 FFF7FEFF 		bl	__stack_chk_fail
 169              	.LVL12:
 170              	.L13:
 171 004a 00BF     		.align	2
ARM GAS  C:\Users\basil\AppData\Local\Temp\cca7mGXf.s 			page 4


 172              	.L12:
 173 004c 00000000 		.word	SD3
 174 0050 00000000 		.word	__stack_chk_guard
 175 0054 00000000 		.word	.LC0
 176              		.cfi_endproc
 177              	.LFE260:
 178              		.size	SendUint8ToComputer, .-SendUint8ToComputer
 179              		.section	.text.startup.main,"ax",%progbits
 180              		.align	1
 181              		.p2align 4,,15
 182              		.global	main
 183              		.syntax unified
 184              		.thumb
 185              		.thumb_func
 186              		.fpu fpv4-sp-d16
 187              		.type	main, %function
 188              	main:
 189              	.LFB262:
 190              		.loc 2 50 0
 191              		.cfi_startproc
 192              		@ args = 0, pretend = 0, frame = 8
 193              		@ frame_needed = 0, uses_anonymous_args = 0
 194 0000 30B5     		push	{r4, r5, lr}
 195              		.cfi_def_cfa_offset 12
 196              		.cfi_offset 4, -12
 197              		.cfi_offset 5, -8
 198              		.cfi_offset 14, -4
 199 0002 484B     		ldr	r3, .L18
 200              		.loc 2 105 0
 201 0004 484C     		ldr	r4, .L18+4
 202              		.loc 2 50 0
 203 0006 1B68     		ldr	r3, [r3]
 204              		.loc 2 105 0
 205 0008 484D     		ldr	r5, .L18+8
 206              		.loc 2 50 0
 207 000a 83B0     		sub	sp, sp, #12
 208              		.cfi_def_cfa_offset 24
 209              		.loc 2 50 0
 210 000c 0193     		str	r3, [sp, #4]
 211              		.loc 2 52 0
 212 000e FFF7FEFF 		bl	halInit
 213              	.LVL13:
 214              		.loc 2 53 0
 215 0012 FFF7FEFF 		bl	chSysInit
 216              	.LVL14:
 217              		.loc 2 54 0
 218 0016 FFF7FEFF 		bl	mpu_init
 219              	.LVL15:
 220              		.loc 2 58 0
 221 001a 454A     		ldr	r2, .L18+12
 222 001c 4549     		ldr	r1, .L18+16
 223 001e 4648     		ldr	r0, .L18+20
 224 0020 FFF7FEFF 		bl	messagebus_init
 225              	.LVL16:
 226              	.LBB4:
 227              	.LBB5:
 228              		.loc 2 46 0
ARM GAS  C:\Users\basil\AppData\Local\Temp\cca7mGXf.s 			page 5


 229 0024 4549     		ldr	r1, .L18+24
 230 0026 2046     		mov	r0, r4
 231 0028 FFF7FEFF 		bl	sdStart
 232              	.LVL17:
 233              	.LBE5:
 234              	.LBE4:
 235              		.loc 2 63 0
 236 002c FFF7FEFF 		bl	usb_start
 237              	.LVL18:
 238              		.loc 2 65 0
 239 0030 FFF7FEFF 		bl	dcmi_start
 240              	.LVL19:
 241              		.loc 2 66 0
 242 0034 FFF7FEFF 		bl	po8030_start
 243              	.LVL20:
 244              		.loc 2 68 0
 245 0038 FFF7FEFF 		bl	motors_init
 246              	.LVL21:
 247              		.loc 2 70 0
 248 003c FFF7FEFF 		bl	proximity_start
 249              	.LVL22:
 250              		.loc 2 71 0
 251 0040 FFF7FEFF 		bl	calibrate_ir
 252              	.LVL23:
 253              		.loc 2 73 0
 254 0044 FFF7FEFF 		bl	VL53L0X_start
 255              	.LVL24:
 256              		.loc 2 77 0
 257 0048 FFF7FEFF 		bl	Deplacement_robot_start
 258              	.LVL25:
 259              		.loc 2 87 0
 260 004c FFF7FEFF 		bl	distanceDetec_start
 261              	.LVL26:
 262              		.loc 2 91 0
 263 0050 3B48     		ldr	r0, .L18+28
 264 0052 FFF7FEFF 		bl	mic_start
 265              	.LVL27:
 266              		.loc 2 95 0
 267 0056 0021     		movs	r1, #0
 268 0058 0846     		mov	r0, r1
 269 005a FFF7FEFF 		bl	set_led
 270              	.LVL28:
 271              	.L15:
 272              		.loc 2 105 0
 273 005e 2946     		mov	r1, r5
 274 0060 2046     		mov	r0, r4
 275 0062 FFF7FEFF 		bl	chprintf.constprop.0
 276              	.LVL29:
 277              		.loc 2 106 0
 278 0066 FFF7FEFF 		bl	wait_sem_audio
 279              	.LVL30:
 280              		.loc 2 108 0
 281 006a 0121     		movs	r1, #1
 282 006c 0020     		movs	r0, #0
 283 006e FFF7FEFF 		bl	set_led
 284              	.LVL31:
 285              		.loc 2 109 0
ARM GAS  C:\Users\basil\AppData\Local\Temp\cca7mGXf.s 			page 6


 286 0072 4FF47A70 		mov	r0, #1000
 287 0076 FFF7FEFF 		bl	chThdSleep
 288              	.LVL32:
 289              		.loc 2 145 0
 290 007a 6420     		movs	r0, #100
 291 007c FFF7FEFF 		bl	chThdSleep
 292              	.LVL33:
 293              		.loc 2 112 0
 294 0080 3049     		ldr	r1, .L18+32
 295 0082 2046     		mov	r0, r4
 296 0084 FFF7FEFF 		bl	chprintf.constprop.0
 297              	.LVL34:
 298              		.loc 2 113 0
 299 0088 FFF7FEFF 		bl	wait_sem_motor
 300              	.LVL35:
 301              		.loc 2 115 0
 302 008c 0121     		movs	r1, #1
 303 008e 0846     		mov	r0, r1
 304 0090 FFF7FEFF 		bl	set_led
 305              	.LVL36:
 306              		.loc 2 116 0
 307 0094 4FF47A70 		mov	r0, #1000
 308 0098 FFF7FEFF 		bl	chThdSleep
 309              	.LVL37:
 310              		.loc 2 145 0
 311 009c 6420     		movs	r0, #100
 312 009e FFF7FEFF 		bl	chThdSleep
 313              	.LVL38:
 314              		.loc 2 119 0
 315 00a2 2949     		ldr	r1, .L18+36
 316 00a4 2046     		mov	r0, r4
 317 00a6 FFF7FEFF 		bl	chprintf.constprop.0
 318              	.LVL39:
 319              		.loc 2 120 0
 320 00aa FFF7FEFF 		bl	wait_sem_motor
 321              	.LVL40:
 322              		.loc 2 122 0
 323 00ae 0121     		movs	r1, #1
 324 00b0 0220     		movs	r0, #2
 325 00b2 FFF7FEFF 		bl	set_led
 326              	.LVL41:
 327              		.loc 2 123 0
 328 00b6 4FF47A70 		mov	r0, #1000
 329 00ba FFF7FEFF 		bl	chThdSleep
 330              	.LVL42:
 331              		.loc 2 145 0
 332 00be 6420     		movs	r0, #100
 333 00c0 FFF7FEFF 		bl	chThdSleep
 334              	.LVL43:
 335              		.loc 2 126 0
 336 00c4 2149     		ldr	r1, .L18+40
 337 00c6 2046     		mov	r0, r4
 338 00c8 FFF7FEFF 		bl	chprintf.constprop.0
 339              	.LVL44:
 340              		.loc 2 127 0
 341 00cc FFF7FEFF 		bl	wait_sem_motor
 342              	.LVL45:
ARM GAS  C:\Users\basil\AppData\Local\Temp\cca7mGXf.s 			page 7


 343              		.loc 2 129 0
 344 00d0 0121     		movs	r1, #1
 345 00d2 0320     		movs	r0, #3
 346 00d4 FFF7FEFF 		bl	set_led
 347              	.LVL46:
 348              		.loc 2 130 0
 349 00d8 4FF47A70 		mov	r0, #1000
 350 00dc FFF7FEFF 		bl	chThdSleep
 351              	.LVL47:
 352              		.loc 2 145 0
 353 00e0 6420     		movs	r0, #100
 354 00e2 FFF7FEFF 		bl	chThdSleep
 355              	.LVL48:
 356              		.loc 2 133 0
 357 00e6 1A49     		ldr	r1, .L18+44
 358 00e8 2046     		mov	r0, r4
 359 00ea FFF7FEFF 		bl	chprintf.constprop.0
 360              	.LVL49:
 361              		.loc 2 134 0
 362 00ee FFF7FEFF 		bl	wait_sem_motor
 363              	.LVL50:
 364              		.loc 2 136 0
 365 00f2 0021     		movs	r1, #0
 366 00f4 0846     		mov	r0, r1
 367 00f6 FFF7FEFF 		bl	set_led
 368              	.LVL51:
 369              		.loc 2 137 0
 370 00fa 0021     		movs	r1, #0
 371 00fc 0120     		movs	r0, #1
 372 00fe FFF7FEFF 		bl	set_led
 373              	.LVL52:
 374              		.loc 2 138 0
 375 0102 0021     		movs	r1, #0
 376 0104 0220     		movs	r0, #2
 377 0106 FFF7FEFF 		bl	set_led
 378              	.LVL53:
 379              		.loc 2 139 0
 380 010a 0021     		movs	r1, #0
 381 010c 0320     		movs	r0, #3
 382 010e FFF7FEFF 		bl	set_led
 383              	.LVL54:
 384              		.loc 2 140 0
 385 0112 4FF47A70 		mov	r0, #1000
 386 0116 FFF7FEFF 		bl	chThdSleep
 387              	.LVL55:
 388              		.loc 2 145 0
 389 011a 6420     		movs	r0, #100
 390 011c FFF7FEFF 		bl	chThdSleep
 391              	.LVL56:
 392 0120 9DE7     		b	.L15
 393              	.L19:
 394 0122 00BF     		.align	2
 395              	.L18:
 396 0124 00000000 		.word	__stack_chk_guard
 397 0128 00000000 		.word	SD3
 398 012c 00000000 		.word	.LC1
 399 0130 00000000 		.word	.LANCHOR0
ARM GAS  C:\Users\basil\AppData\Local\Temp\cca7mGXf.s 			page 8


 400 0134 00000000 		.word	.LANCHOR1
 401 0138 00000000 		.word	.LANCHOR2
 402 013c 00000000 		.word	.LANCHOR3
 403 0140 00000000 		.word	processAudioData
 404 0144 28000000 		.word	.LC2
 405 0148 50000000 		.word	.LC3
 406 014c 74000000 		.word	.LC4
 407 0150 94000000 		.word	.LC5
 408              		.cfi_endproc
 409              	.LFE262:
 410              		.size	main, .-main
 411              		.section	.text.__stack_chk_fail,"ax",%progbits
 412              		.align	1
 413              		.p2align 4,,15
 414              		.global	__stack_chk_fail
 415              		.syntax unified
 416              		.thumb
 417              		.thumb_func
 418              		.fpu fpv4-sp-d16
 419              		.type	__stack_chk_fail, %function
 420              	__stack_chk_fail:
 421              	.LFB263:
 422              		.loc 2 153 0
 423              		.cfi_startproc
 424              		@ args = 0, pretend = 0, frame = 8
 425              		@ frame_needed = 0, uses_anonymous_args = 0
 426 0000 00B5     		push	{lr}
 427              		.cfi_def_cfa_offset 4
 428              		.cfi_offset 14, -4
 429 0002 084B     		ldr	r3, .L25
 430 0004 83B0     		sub	sp, sp, #12
 431              		.cfi_def_cfa_offset 16
 432              		.loc 2 153 0
 433 0006 1A68     		ldr	r2, [r3]
 434 0008 0192     		str	r2, [sp, #4]
 435              		.loc 2 154 0
 436 000a 019A     		ldr	r2, [sp, #4]
 437 000c 1B68     		ldr	r3, [r3]
 438 000e 9A42     		cmp	r2, r3
 439 0010 05D1     		bne	.L24
 440 0012 0548     		ldr	r0, .L25+4
 441              		.loc 2 155 0
 442 0014 03B0     		add	sp, sp, #12
 443              		.cfi_remember_state
 444              		.cfi_def_cfa_offset 4
 445              		@ sp needed
 446 0016 5DF804EB 		ldr	lr, [sp], #4
 447              		.cfi_restore 14
 448              		.cfi_def_cfa_offset 0
 449              		.loc 2 154 0
 450 001a FFF7FEBF 		b	chSysHalt
 451              	.LVL57:
 452              	.L24:
 453              		.cfi_restore_state
 454 001e FFF7FEFF 		bl	__stack_chk_fail
 455              	.LVL58:
 456              	.L26:
ARM GAS  C:\Users\basil\AppData\Local\Temp\cca7mGXf.s 			page 9


 457 0022 00BF     		.align	2
 458              	.L25:
 459 0024 00000000 		.word	__stack_chk_guard
 460 0028 00000000 		.word	.LC6
 461              		.cfi_endproc
 462              	.LFE263:
 463              		.size	__stack_chk_fail, .-__stack_chk_fail
 464              		.global	__stack_chk_guard
 465              		.global	bus_condvar
 466              		.global	bus_lock
 467              		.global	bus
 468              		.section	.bss.bus,"aw",%nobits
 469              		.align	2
 470              		.set	.LANCHOR2,. + 0
 471              		.type	bus, %object
 472              		.size	bus, 12
 473              	bus:
 474 0000 00000000 		.space	12
 474      00000000 
 474      00000000 
 475              		.section	.data.__stack_chk_guard,"aw",%progbits
 476              		.align	2
 477              		.type	__stack_chk_guard, %object
 478              		.size	__stack_chk_guard, 4
 479              	__stack_chk_guard:
 480 0000 96E3DEE2 		.word	-488709226
 481              		.section	.data.bus_condvar,"aw",%progbits
 482              		.align	2
 483              		.set	.LANCHOR0,. + 0
 484              		.type	bus_condvar, %object
 485              		.size	bus_condvar, 8
 486              	bus_condvar:
 487 0000 00000000 		.word	bus_condvar
 488 0004 00000000 		.word	bus_condvar
 489              		.section	.data.bus_lock,"aw",%progbits
 490              		.align	2
 491              		.set	.LANCHOR1,. + 0
 492              		.type	bus_lock, %object
 493              		.size	bus_lock, 20
 494              	bus_lock:
 495 0000 00000000 		.word	bus_lock
 496 0004 00000000 		.word	bus_lock
 497 0008 00000000 		.word	0
 498 000c 00000000 		.word	0
 499 0010 00000000 		.word	0
 500              		.section	.data.ser_cfg.13504,"aw",%progbits
 501              		.align	2
 502              		.set	.LANCHOR3,. + 0
 503              		.type	ser_cfg.13504, %object
 504              		.size	ser_cfg.13504, 12
 505              	ser_cfg.13504:
 506 0000 00C20100 		.word	115200
 507 0004 0000     		.short	0
 508 0006 0000     		.short	0
 509 0008 0000     		.short	0
 510 000a 0000     		.space	2
 511              		.section	.rodata.SendUint8ToComputer.str1.4,"aMS",%progbits,1
ARM GAS  C:\Users\basil\AppData\Local\Temp\cca7mGXf.s 			page 10


 512              		.align	2
 513              	.LC0:
 514 0000 53544152 		.ascii	"START\000"
 514      5400
 515              		.section	.rodata.__stack_chk_fail.str1.4,"aMS",%progbits,1
 516              		.align	2
 517              	.LC6:
 518 0000 53746163 		.ascii	"Stack smashing detected\000"
 518      6B20736D 
 518      61736869 
 518      6E672064 
 518      65746563 
 519              		.section	.rodata.main.str1.4,"aMS",%progbits,1
 520              		.align	2
 521              	.LC1:
 522 0000 43757272 		.ascii	"Current main State = WAIT_FOR_COLOR, \000"
 522      656E7420 
 522      6D61696E 
 522      20537461 
 522      7465203D 
 523 0026 0000     		.space	2
 524              	.LC2:
 525 0028 43757272 		.ascii	"Current main State = RETURN_CENTER, \000"
 525      656E7420 
 525      6D61696E 
 525      20537461 
 525      7465203D 
 526 004d 000000   		.space	3
 527              	.LC3:
 528 0050 43757272 		.ascii	"Current main State = FIND_BALL, \000"
 528      656E7420 
 528      6D61696E 
 528      20537461 
 528      7465203D 
 529 0071 000000   		.space	3
 530              	.LC4:
 531 0074 43757272 		.ascii	"Current main State = GET_BALL, \000"
 531      656E7420 
 531      6D61696E 
 531      20537461 
 531      7465203D 
 532              	.LC5:
 533 0094 43757272 		.ascii	"Current main State = BACK_HOME\000"
 533      656E7420 
 533      6D61696E 
 533      20537461 
 533      7465203D 
 534              		.text
 535              	.Letext0:
 536              		.file 3 "c:\\users\\basil\\documents\\tp_robotique\\eclipse_e-puck2\\tools\\gcc-arm-none-eabi-7-20
 537              		.file 4 "c:\\users\\basil\\documents\\tp_robotique\\eclipse_e-puck2\\tools\\gcc-arm-none-eabi-7-20
 538              		.file 5 "c:\\users\\basil\\documents\\tp_robotique\\eclipse_e-puck2\\tools\\gcc-arm-none-eabi-7-20
 539              		.file 6 "c:\\users\\basil\\documents\\tp_robotique\\eclipse_e-puck2\\tools\\gcc-arm-none-eabi-7-20
 540              		.file 7 "c:\\users\\basil\\documents\\tp_robotique\\eclipse_e-puck2\\tools\\gcc-arm-none-eabi-7-20
 541              		.file 8 "c:\\users\\basil\\documents\\tp_robotique\\eclipse_e-puck2\\tools\\gcc-arm-none-eabi-7-20
 542              		.file 9 "c:\\users\\basil\\documents\\tp_robotique\\eclipse_e-puck2\\tools\\gcc-arm-none-eabi-7-20
 543              		.file 10 "<built-in>"
ARM GAS  C:\Users\basil\AppData\Local\Temp\cca7mGXf.s 			page 11


 544              		.file 11 "c:\\users\\basil\\documents\\tp_robotique\\eclipse_e-puck2\\tools\\gcc-arm-none-eabi-7-2
 545              		.file 12 "c:\\users\\basil\\documents\\tp_robotique\\eclipse_e-puck2\\tools\\gcc-arm-none-eabi-7-2
 546              		.file 13 "c:\\users\\basil\\documents\\tp_robotique\\eclipse_e-puck2\\tools\\gcc-arm-none-eabi-7-2
 547              		.file 14 "../../lib/e-puck2_main-processor/ChibiOS//os/rt/ports/ARMCMx/compilers/GCC/chtypes.h"
 548              		.file 15 "../../lib/e-puck2_main-processor/ChibiOS//os/rt/include/chsystypes.h"
 549              		.file 16 "../../lib/e-puck2_main-processor/ChibiOS//os/rt/include/chschd.h"
 550              		.file 17 "../../lib/e-puck2_main-processor/ChibiOS//os/ext/CMSIS/include/core_cm4.h"
 551              		.file 18 "../../lib/e-puck2_main-processor/ChibiOS//os/ext/CMSIS/ST/system_stm32f4xx.h"
 552              		.file 19 "../../lib/e-puck2_main-processor/ChibiOS//os/ext/CMSIS/ST/stm32f407xx.h"
 553              		.file 20 "../../lib/e-puck2_main-processor/ChibiOS//os/rt/ports/ARMCMx/chcore.h"
 554              		.file 21 "../../lib/e-puck2_main-processor/ChibiOS//os/rt/ports/ARMCMx/chcore_v7m.h"
 555              		.file 22 "../../lib/e-puck2_main-processor/ChibiOS//os/rt/include/chdebug.h"
 556              		.file 23 "../../lib/e-puck2_main-processor/ChibiOS//os/rt/include/chtm.h"
 557              		.file 24 "../../lib/e-puck2_main-processor/ChibiOS//os/rt/include/chstats.h"
 558              		.file 25 "../../lib/e-puck2_main-processor/ChibiOS//os/rt/include/chsem.h"
 559              		.file 26 "../../lib/e-puck2_main-processor/ChibiOS//os/rt/include/chmtx.h"
 560              		.file 27 "../../lib/e-puck2_main-processor/ChibiOS//os/rt/include/chregistry.h"
 561              		.file 28 "../../lib/e-puck2_main-processor/ChibiOS//os/rt/include/chcond.h"
 562              		.file 29 "../../lib/e-puck2_main-processor/ChibiOS//os/rt/include/chevents.h"
 563              		.file 30 "../../lib/e-puck2_main-processor/ChibiOS//os/rt/include/chqueues.h"
 564              		.file 31 "../../lib/e-puck2_main-processor/ChibiOS//os/rt/include/chstreams.h"
 565              		.file 32 "../../lib/e-puck2_main-processor/ChibiOS//os/hal/ports/STM32/STM32F4xx/stm32_dma.h"
 566              		.file 33 "../../lib/e-puck2_main-processor/ChibiOS//os/hal/include/hal_ioblock.h"
 567              		.file 34 "../../lib/e-puck2_main-processor/ChibiOS//os/hal/ports/STM32/LLD/GPIOv2/pal_lld.h"
 568              		.file 35 "../../lib/e-puck2_main-processor/ChibiOS//os/hal/include/adc.h"
 569              		.file 36 "../../lib/e-puck2_main-processor/ChibiOS//os/hal/ports/STM32/STM32F4xx/adc_lld.h"
 570              		.file 37 "../../lib/e-puck2_main-processor/ChibiOS//os/hal/include/can.h"
 571              		.file 38 "../../lib/e-puck2_main-processor/ChibiOS//os/hal/ports/STM32/LLD/can_lld.h"
 572              		.file 39 "../../lib/e-puck2_main-processor/ChibiOS//os/hal/include/dac.h"
 573              		.file 40 "../../lib/e-puck2_main-processor/ChibiOS//os/hal/ports/STM32/LLD/DACv1/dac_lld.h"
 574              		.file 41 "../../lib/e-puck2_main-processor/ChibiOS//os/hal/include/ext.h"
 575              		.file 42 "../../lib/e-puck2_main-processor/ChibiOS//os/hal/ports/STM32/LLD/ext_lld.h"
 576              		.file 43 "../../lib/e-puck2_main-processor/ChibiOS//os/hal/include/gpt.h"
 577              		.file 44 "../../lib/e-puck2_main-processor/ChibiOS//os/hal/ports/STM32/LLD/TIMv1/gpt_lld.h"
 578              		.file 45 "../../lib/e-puck2_main-processor/ChibiOS//os/hal/ports/STM32/LLD/TIMv1/stm32_tim.h"
 579              		.file 46 "../../lib/e-puck2_main-processor/ChibiOS//os/hal/include/i2c.h"
 580              		.file 47 "../../lib/e-puck2_main-processor/ChibiOS//os/hal/ports/STM32/LLD/I2Cv1/i2c_lld.h"
 581              		.file 48 "../../lib/e-puck2_main-processor/ChibiOS//os/hal/include/i2s.h"
 582              		.file 49 "../../lib/e-puck2_main-processor/ChibiOS//os/hal/ports/STM32/LLD/SPIv1/i2s_lld.h"
 583              		.file 50 "../../lib/e-puck2_main-processor/ChibiOS//os/hal/include/pwm.h"
 584              		.file 51 "../../lib/e-puck2_main-processor/ChibiOS//os/hal/ports/STM32/LLD/TIMv1/pwm_lld.h"
 585              		.file 52 "../../lib/e-puck2_main-processor/ChibiOS//os/hal/include/serial.h"
 586              		.file 53 "../../lib/e-puck2_main-processor/ChibiOS//os/hal/ports/STM32/LLD/USARTv1/serial_lld.h"
 587              		.file 54 "../../lib/e-puck2_main-processor/ChibiOS//os/hal/include/sdc.h"
 588              		.file 55 "../../lib/e-puck2_main-processor/ChibiOS//os/hal/ports/STM32/LLD/sdc_lld.h"
 589              		.file 56 "../../lib/e-puck2_main-processor/ChibiOS//os/hal/include/spi.h"
 590              		.file 57 "../../lib/e-puck2_main-processor/ChibiOS//os/hal/ports/STM32/LLD/SPIv1/spi_lld.h"
 591              		.file 58 "../../lib/e-puck2_main-processor/ChibiOS//os/hal/include/usb.h"
 592              		.file 59 "../../lib/e-puck2_main-processor/ChibiOS//os/hal/ports/STM32/LLD/OTGv1/usb_lld.h"
 593              		.file 60 "../../lib/e-puck2_main-processor/ChibiOS//os/hal/ports/STM32/LLD/OTGv1/stm32_otg.h"
 594              		.file 61 "../../lib/e-puck2_main-processor/ChibiOS//os/hal/include/serial_usb.h"
 595              		.file 62 "../../lib/e-puck2_main-processor/src/usbcfg.h"
 596              		.file 63 "../../lib/e-puck2_main-processor/ChibiOS_ext/os/hal/include/../ports/STM32/STM32F4xx/dcm
 597              		.file 64 "c:\\users\\basil\\documents\\tp_robotique\\eclipse_e-puck2\\tools\\gcc-arm-none-eabi-7-2
 598              		.file 65 "../../lib/e-puck2_main-processor/src/msgbus/messagebus.h"
 599              		.file 66 "../../lib/e-puck2_main-processor/src/parameter/parameter.h"
 600              		.file 67 "./main.h"
ARM GAS  C:\Users\basil\AppData\Local\Temp\cca7mGXf.s 			page 12


 601              		.file 68 "../../lib/e-puck2_main-processor/src/leds.h"
 602              		.file 69 "../../lib/e-puck2_main-processor/ChibiOS//os/rt/include/chsys.h"
 603              		.file 70 "../../lib/e-puck2_main-processor/ChibiOS//os/hal/include/hal.h"
 604              		.file 71 "../../lib/e-puck2_main-processor/src/memory_protection.h"
 605              		.file 72 "../../lib/e-puck2_main-processor/src/camera/dcmi_camera.h"
 606              		.file 73 "../../lib/e-puck2_main-processor/src/camera/po8030.h"
 607              		.file 74 "../../lib/e-puck2_main-processor/src/motors.h"
 608              		.file 75 "../../lib/e-puck2_main-processor/src/sensors/proximity.h"
 609              		.file 76 "../../lib/e-puck2_main-processor/src/sensors/VL53L0X/VL53L0X.h"
 610              		.file 77 "./pi_regulator.h"
 611              		.file 78 "distance_sensor.h"
 612              		.file 79 "../../lib/e-puck2_main-processor/src/audio/microphone.h"
 613              		.file 80 "audio_processing.h"
 614              		.file 81 "../../lib/e-puck2_main-processor/ChibiOS//os/rt/include/chthreads.h"