ARM GAS  C:\Users\basil\AppData\Local\Temp\ccqLTTxu.s 			page 1


   1              		.cpu cortex-m4
   2              		.eabi_attribute 27, 1
   3              		.eabi_attribute 28, 1
   4              		.eabi_attribute 20, 1
   5              		.eabi_attribute 21, 1
   6              		.eabi_attribute 23, 3
   7              		.eabi_attribute 24, 1
   8              		.eabi_attribute 25, 1
   9              		.eabi_attribute 26, 1
  10              		.eabi_attribute 30, 2
  11              		.eabi_attribute 34, 1
  12              		.eabi_attribute 18, 4
  13              		.file	"pi_regulator.c"
  14              		.text
  15              	.Ltext0:
  16              		.cfi_sections	.debug_frame
  17              		.section	.text.Deplacement_robot,"ax",%progbits
  18              		.align	1
  19              		.p2align 4,,15
  20              		.syntax unified
  21              		.thumb
  22              		.thumb_func
  23              		.fpu fpv4-sp-d16
  24              		.type	Deplacement_robot, %function
  25              	Deplacement_robot:
  26              	.LFB257:
  27              		.file 1 "pi_regulator.c"
  28              		.loc 1 16 0
  29              		.cfi_startproc
  30              		@ args = 0, pretend = 0, frame = 8
  31              		@ frame_needed = 0, uses_anonymous_args = 0
  32              	.LVL0:
  33 0000 2DE9F041 		push	{r4, r5, r6, r7, r8, lr}
  34              		.cfi_def_cfa_offset 24
  35              		.cfi_offset 4, -24
  36              		.cfi_offset 5, -20
  37              		.cfi_offset 6, -16
  38              		.cfi_offset 7, -12
  39              		.cfi_offset 8, -8
  40              		.cfi_offset 14, -4
  41 0004 2DED048B 		vpush.64	{d8, d9}
  42              		.cfi_def_cfa_offset 40
  43              		.cfi_offset 80, -40
  44              		.cfi_offset 81, -36
  45              		.cfi_offset 82, -32
  46              		.cfi_offset 83, -28
  47              	.LBB48:
  48              	.LBB49:
  49              		.file 2 "../../lib/e-puck2_main-processor/ChibiOS//os/rt/include/chregistry.h"
  50              		.loc 2 135 0
  51 0008 394C     		ldr	r4, .L15
  52              	.LBE49:
  53              	.LBE48:
  54              		.loc 1 16 0
  55 000a 3A4B     		ldr	r3, .L15+4
  56              	.LBB52:
  57              	.LBB50:
ARM GAS  C:\Users\basil\AppData\Local\Temp\ccqLTTxu.s 			page 2


  58              		.loc 2 135 0
  59 000c A269     		ldr	r2, [r4, #24]
  60 000e 3A49     		ldr	r1, .L15+8
  61              	.LBE50:
  62              	.LBE52:
  63              		.loc 1 16 0
  64 0010 1B68     		ldr	r3, [r3]
  65              	.LBB53:
  66              	.LBB54:
  67              	.LBB55:
  68              	.LBB56:
  69              		.file 3 "../../lib/e-puck2_main-processor/ChibiOS//os/rt/include/chsys.h"
  70              		.loc 3 367 0
  71 0012 DFF8F080 		ldr	r8, .L15+20
  72              	.LBE56:
  73              	.LBE55:
  74              	.LBE54:
  75              	.LBE53:
  76              		.loc 1 37 0
  77 0016 9FED399A 		vldr.32	s18, .L15+12
  78              		.loc 1 55 0
  79 001a 394F     		ldr	r7, .L15+16
  80              	.LBB70:
  81              	.LBB51:
  82              		.loc 2 135 0
  83 001c 9161     		str	r1, [r2, #24]
  84              	.LBE51:
  85              	.LBE70:
  86              		.loc 1 16 0
  87 001e 82B0     		sub	sp, sp, #8
  88              		.cfi_def_cfa_offset 48
  89              		.loc 1 25 0
  90 0020 0025     		movs	r5, #0
  91              		.loc 1 16 0
  92 0022 0193     		str	r3, [sp, #4]
  93              	.LVL1:
  94 0024 07E0     		b	.L8
  95              	.LVL2:
  96              	.L3:
  97              		.loc 1 54 0
  98 0026 022D     		cmp	r5, #2
  99 0028 59D0     		beq	.L7
 100 002a 0125     		movs	r5, #1
 101              	.LVL3:
 102              	.L6:
 103              		.loc 1 60 0
 104 002c 06F10A01 		add	r1, r6, #10
 105 0030 3046     		mov	r0, r6
 106 0032 FFF7FEFF 		bl	chThdSleepUntilWindowed
 107              	.LVL4:
 108              	.L8:
 109              	.LBB71:
 110              	.LBB69:
 111              	.LBB61:
 112              	.LBB62:
 113              	.LBB63:
 114              	.LBB64:
ARM GAS  C:\Users\basil\AppData\Local\Temp\ccqLTTxu.s 			page 3


 115              	.LBB65:
 116              		.file 4 "../../lib/e-puck2_main-processor/ChibiOS//os/ext/CMSIS/include/core_cmFunc.h"
 117              		.loc 4 546 0
 118 0036 2023     		movs	r3, #32
 119              		.syntax unified
 120              	@ 546 "../../lib/e-puck2_main-processor/ChibiOS//os/ext/CMSIS/include/core_cmFunc.h" 1
 121 0038 83F31188 		MSR basepri, r3
 122              	@ 0 "" 2
 123              	.LVL5:
 124              		.thumb
 125              		.syntax unified
 126              	.LBE65:
 127              	.LBE64:
 128              	.LBE63:
 129              		.loc 3 349 0
 130 003c FFF7FEFF 		bl	_stats_start_measure_crit_thd
 131              	.LVL6:
 132              		.loc 3 350 0
 133 0040 FFF7FEFF 		bl	_dbg_check_lock
 134              	.LVL7:
 135              	.LBE62:
 136              	.LBE61:
 137              	.LBB66:
 138              	.LBB67:
 139              		.file 5 "../../lib/e-puck2_main-processor/ChibiOS//os/rt/include/chvt.h"
 140              		.loc 5 231 0
 141 0044 A66A     		ldr	r6, [r4, #40]
 142              	.LBE67:
 143              	.LBE66:
 144              	.LBB68:
 145              	.LBB60:
 146              		.loc 3 360 0
 147 0046 FFF7FEFF 		bl	_dbg_check_unlock
 148              	.LVL8:
 149              		.loc 3 361 0
 150 004a FFF7FEFF 		bl	_stats_stop_measure_crit_thd
 151              	.LVL9:
 152              		.loc 3 367 0
 153 004e 2368     		ldr	r3, [r4]
 154 0050 A342     		cmp	r3, r4
 155 0052 07D0     		beq	.L2
 156 0054 A269     		ldr	r2, [r4, #24]
 157 0056 9B68     		ldr	r3, [r3, #8]
 158 0058 9268     		ldr	r2, [r2, #8]
 159 005a 9A42     		cmp	r2, r3
 160 005c 02D2     		bcs	.L2
 161 005e 4046     		mov	r0, r8
 162 0060 FFF7FEFF 		bl	chSysHalt
 163              	.LVL10:
 164              	.L2:
 165              	.LBB57:
 166              	.LBB58:
 167              	.LBB59:
 168              		.loc 4 546 0
 169 0064 0023     		movs	r3, #0
 170              		.syntax unified
 171              	@ 546 "../../lib/e-puck2_main-processor/ChibiOS//os/ext/CMSIS/include/core_cmFunc.h" 1
ARM GAS  C:\Users\basil\AppData\Local\Temp\ccqLTTxu.s 			page 4


 172 0066 83F31188 		MSR basepri, r3
 173              	@ 0 "" 2
 174              	.LVL11:
 175              		.thumb
 176              		.syntax unified
 177              	.LBE59:
 178              	.LBE58:
 179              	.LBE57:
 180              	.LBE60:
 181              	.LBE68:
 182              	.LBE69:
 183              	.LBE71:
 184              		.loc 1 30 0
 185 006a 002D     		cmp	r5, #0
 186 006c DBD1     		bne	.L3
 187              		.loc 1 32 0
 188 006e FFF7FEFF 		bl	get_distance_cm
 189              	.LVL12:
 190 0072 B0EE408A 		vmov.f32	s16, s0
 191              	.LVL13:
 192              		.loc 1 33 0
 193 0076 FFF7FEFF 		bl	get_line_position
 194              	.LVL14:
 195              		.loc 1 36 0
 196 007a F1EE047A 		vmov.f32	s15, #5.0e+0
 197 007e B4EEE78A 		vcmpe.f32	s16, s15
 198 0082 F1EE10FA 		vmrs	APSR_nzcv, FPSCR
 199 0086 1DDD     		ble	.L12
 200              		.loc 1 37 0
 201 0088 F3EE0E7A 		vmov.f32	s15, #3.0e+1
 202 008c C8EE278A 		vdiv.f32	s17, s16, s15
 203 0090 00B2     		sxth	r0, r0
 204 0092 A0F5A070 		sub	r0, r0, #320
 205              	.LVL15:
 206 0096 07EE900A 		vmov	s15, r0	@ int
 207 009a B8EEE78A 		vcvt.f32.s32	s16, s15
 208              	.LVL16:
 209 009e F0EE487A 		vmov.f32	s15, s16
 210 00a2 D8EE897A 		vfnms.f32	s15, s17, s18
 211 00a6 FDEEE77A 		vcvt.s32.f32	s15, s15
 212 00aa 17EE900A 		vmov	r0, s15	@ int
 213              	.LVL17:
 214 00ae FFF7FEFF 		bl	right_motor_set_speed
 215              	.LVL18:
 216              		.loc 1 38 0
 217 00b2 A8EE898A 		vfma.f32	s16, s17, s18
 218 00b6 FDEEC87A 		vcvt.s32.f32	s15, s16
 219 00ba 17EE900A 		vmov	r0, s15	@ int
 220 00be FFF7FEFF 		bl	left_motor_set_speed
 221              	.LVL19:
 222 00c2 B3E7     		b	.L6
 223              	.LVL20:
 224              	.L12:
 225              		.loc 1 41 0
 226 00c4 2846     		mov	r0, r5
 227              	.LVL21:
 228 00c6 FFF7FEFF 		bl	right_motor_set_speed
ARM GAS  C:\Users\basil\AppData\Local\Temp\ccqLTTxu.s 			page 5


 229              	.LVL22:
 230              		.loc 1 42 0
 231 00ca 2846     		mov	r0, r5
 232 00cc FFF7FEFF 		bl	left_motor_set_speed
 233              	.LVL23:
 234              		.loc 1 49 0
 235 00d0 4FF4FA70 		mov	r0, #500
 236 00d4 FFF7FEFF 		bl	right_motor_set_speed
 237              	.LVL24:
 238              		.loc 1 50 0
 239 00d8 3846     		mov	r0, r7
 240 00da FFF7FEFF 		bl	left_motor_set_pos
 241              	.LVL25:
 242              	.L7:
 243              		.loc 1 55 0
 244 00de 3846     		mov	r0, r7
 245 00e0 FFF7FEFF 		bl	right_motor_set_speed
 246              	.LVL26:
 247              		.loc 1 56 0
 248 00e4 3846     		mov	r0, r7
 249 00e6 FFF7FEFF 		bl	left_motor_set_pos
 250              	.LVL27:
 251 00ea 0225     		movs	r5, #2
 252 00ec 9EE7     		b	.L6
 253              	.L16:
 254 00ee 00BF     		.align	2
 255              	.L15:
 256 00f0 00000000 		.word	ch
 257 00f4 00000000 		.word	__stack_chk_guard
 258 00f8 00000000 		.word	.LANCHOR0
 259 00fc 00808944 		.word	1149861888
 260 0100 0CFEFFFF 		.word	-500
 261 0104 00000000 		.word	.LANCHOR1
 262              		.cfi_endproc
 263              	.LFE257:
 264              		.size	Deplacement_robot, .-Deplacement_robot
 265              		.section	.text.Deplacement_robot_start,"ax",%progbits
 266              		.align	1
 267              		.p2align 4,,15
 268              		.global	Deplacement_robot_start
 269              		.syntax unified
 270              		.thumb
 271              		.thumb_func
 272              		.fpu fpv4-sp-d16
 273              		.type	Deplacement_robot_start, %function
 274              	Deplacement_robot_start:
 275              	.LFB258:
 276              		.loc 1 64 0
 277              		.cfi_startproc
 278              		@ args = 0, pretend = 0, frame = 8
 279              		@ frame_needed = 0, uses_anonymous_args = 0
 280 0000 10B5     		push	{r4, lr}
 281              		.cfi_def_cfa_offset 8
 282              		.cfi_offset 4, -8
 283              		.cfi_offset 14, -4
 284 0002 0A4C     		ldr	r4, .L21
 285              		.loc 1 65 0
ARM GAS  C:\Users\basil\AppData\Local\Temp\ccqLTTxu.s 			page 6


 286 0004 0A4B     		ldr	r3, .L21+4
 287              		.loc 1 64 0
 288 0006 2268     		ldr	r2, [r4]
 289              		.loc 1 65 0
 290 0008 0A48     		ldr	r0, .L21+8
 291              		.loc 1 64 0
 292 000a 84B0     		sub	sp, sp, #16
 293              		.cfi_def_cfa_offset 24
 294              		.loc 1 65 0
 295 000c 4FF41E71 		mov	r1, #632
 296              		.loc 1 64 0
 297 0010 0392     		str	r2, [sp, #12]
 298              		.loc 1 65 0
 299 0012 0022     		movs	r2, #0
 300 0014 0092     		str	r2, [sp]
 301 0016 4022     		movs	r2, #64
 302 0018 FFF7FEFF 		bl	chThdCreateStatic
 303              	.LVL28:
 304              		.loc 1 66 0
 305 001c 039A     		ldr	r2, [sp, #12]
 306 001e 2368     		ldr	r3, [r4]
 307 0020 9A42     		cmp	r2, r3
 308 0022 01D1     		bne	.L20
 309 0024 04B0     		add	sp, sp, #16
 310              		.cfi_remember_state
 311              		.cfi_def_cfa_offset 8
 312              		@ sp needed
 313 0026 10BD     		pop	{r4, pc}
 314              	.L20:
 315              		.cfi_restore_state
 316 0028 FFF7FEFF 		bl	__stack_chk_fail
 317              	.LVL29:
 318              	.L22:
 319              		.align	2
 320              	.L21:
 321 002c 00000000 		.word	__stack_chk_guard
 322 0030 00000000 		.word	Deplacement_robot
 323 0034 00000000 		.word	.LANCHOR2
 324              		.cfi_endproc
 325              	.LFE258:
 326              		.size	Deplacement_robot_start, .-Deplacement_robot_start
 327              		.section	.bss.waDeplacement_robot,"aw",%nobits
 328              		.align	3
 329              		.set	.LANCHOR2,. + 0
 330              		.type	waDeplacement_robot, %object
 331              		.size	waDeplacement_robot, 632
 332              	waDeplacement_robot:
 333 0000 00000000 		.space	632
 333      00000000 
 333      00000000 
 333      00000000 
 333      00000000 
 334              		.section	.rodata.__FUNCTION__.11850,"a",%progbits
 335              		.align	2
 336              		.set	.LANCHOR0,. + 0
 337              		.type	__FUNCTION__.11850, %object
 338              		.size	__FUNCTION__.11850, 18
ARM GAS  C:\Users\basil\AppData\Local\Temp\ccqLTTxu.s 			page 7


 339              	__FUNCTION__.11850:
 340 0000 4465706C 		.ascii	"Deplacement_robot\000"
 340      6163656D 
 340      656E745F 
 340      726F626F 
 340      7400
 341              		.section	.rodata.__func__.7153,"a",%progbits
 342              		.align	2
 343              		.set	.LANCHOR1,. + 0
 344              		.type	__func__.7153, %object
 345              		.size	__func__.7153, 12
 346              	__func__.7153:
 347 0000 63685379 		.ascii	"chSysUnlock\000"
 347      73556E6C 
 347      6F636B00 
 348              		.text
 349              	.Letext0:
 350              		.file 6 "c:\\users\\basil\\documents\\tp_robotique\\eclipse_e-puck2\\tools\\gcc-arm-none-eabi-7-20
 351              		.file 7 "c:\\users\\basil\\documents\\tp_robotique\\eclipse_e-puck2\\tools\\gcc-arm-none-eabi-7-20
 352              		.file 8 "c:\\users\\basil\\documents\\tp_robotique\\eclipse_e-puck2\\tools\\gcc-arm-none-eabi-7-20
 353              		.file 9 "../../lib/e-puck2_main-processor/ChibiOS//os/rt/ports/ARMCMx/compilers/GCC/chtypes.h"
 354              		.file 10 "../../lib/e-puck2_main-processor/ChibiOS//os/rt/include/chsystypes.h"
 355              		.file 11 "../../lib/e-puck2_main-processor/ChibiOS//os/rt/include/chschd.h"
 356              		.file 12 "../../lib/e-puck2_main-processor/ChibiOS//os/ext/CMSIS/include/core_cm4.h"
 357              		.file 13 "../../lib/e-puck2_main-processor/ChibiOS//os/ext/CMSIS/ST/system_stm32f4xx.h"
 358              		.file 14 "../../lib/e-puck2_main-processor/ChibiOS//os/ext/CMSIS/ST/stm32f407xx.h"
 359              		.file 15 "../../lib/e-puck2_main-processor/ChibiOS//os/rt/ports/ARMCMx/chcore.h"
 360              		.file 16 "../../lib/e-puck2_main-processor/ChibiOS//os/rt/ports/ARMCMx/chcore_v7m.h"
 361              		.file 17 "../../lib/e-puck2_main-processor/ChibiOS//os/rt/include/chdebug.h"
 362              		.file 18 "../../lib/e-puck2_main-processor/ChibiOS//os/rt/include/chtm.h"
 363              		.file 19 "../../lib/e-puck2_main-processor/ChibiOS//os/rt/include/chstats.h"
 364              		.file 20 "../../lib/e-puck2_main-processor/ChibiOS//os/rt/include/chsem.h"
 365              		.file 21 "../../lib/e-puck2_main-processor/ChibiOS//os/rt/include/chmtx.h"
 366              		.file 22 "../../lib/e-puck2_main-processor/ChibiOS//os/rt/include/chevents.h"
 367              		.file 23 "../../lib/e-puck2_main-processor/ChibiOS//os/rt/include/chqueues.h"
 368              		.file 24 "../../lib/e-puck2_main-processor/ChibiOS//os/hal/ports/STM32/STM32F4xx/stm32_dma.h"
 369              		.file 25 "../../lib/e-puck2_main-processor/ChibiOS//os/hal/include/hal_ioblock.h"
 370              		.file 26 "../../lib/e-puck2_main-processor/ChibiOS//os/hal/ports/STM32/LLD/GPIOv2/pal_lld.h"
 371              		.file 27 "../../lib/e-puck2_main-processor/ChibiOS//os/hal/include/adc.h"
 372              		.file 28 "../../lib/e-puck2_main-processor/ChibiOS//os/hal/ports/STM32/STM32F4xx/adc_lld.h"
 373              		.file 29 "../../lib/e-puck2_main-processor/ChibiOS//os/hal/include/can.h"
 374              		.file 30 "../../lib/e-puck2_main-processor/ChibiOS//os/hal/ports/STM32/LLD/can_lld.h"
 375              		.file 31 "../../lib/e-puck2_main-processor/ChibiOS//os/hal/include/dac.h"
 376              		.file 32 "../../lib/e-puck2_main-processor/ChibiOS//os/hal/ports/STM32/LLD/DACv1/dac_lld.h"
 377              		.file 33 "../../lib/e-puck2_main-processor/ChibiOS//os/hal/include/ext.h"
 378              		.file 34 "../../lib/e-puck2_main-processor/ChibiOS//os/hal/ports/STM32/LLD/ext_lld.h"
 379              		.file 35 "../../lib/e-puck2_main-processor/ChibiOS//os/hal/include/gpt.h"
 380              		.file 36 "../../lib/e-puck2_main-processor/ChibiOS//os/hal/ports/STM32/LLD/TIMv1/gpt_lld.h"
 381              		.file 37 "../../lib/e-puck2_main-processor/ChibiOS//os/hal/ports/STM32/LLD/TIMv1/stm32_tim.h"
 382              		.file 38 "../../lib/e-puck2_main-processor/ChibiOS//os/hal/include/i2c.h"
 383              		.file 39 "../../lib/e-puck2_main-processor/ChibiOS//os/hal/ports/STM32/LLD/I2Cv1/i2c_lld.h"
 384              		.file 40 "../../lib/e-puck2_main-processor/ChibiOS//os/hal/include/i2s.h"
 385              		.file 41 "../../lib/e-puck2_main-processor/ChibiOS//os/hal/ports/STM32/LLD/SPIv1/i2s_lld.h"
 386              		.file 42 "../../lib/e-puck2_main-processor/ChibiOS//os/hal/include/pwm.h"
 387              		.file 43 "../../lib/e-puck2_main-processor/ChibiOS//os/hal/ports/STM32/LLD/TIMv1/pwm_lld.h"
 388              		.file 44 "../../lib/e-puck2_main-processor/ChibiOS//os/hal/include/serial.h"
 389              		.file 45 "../../lib/e-puck2_main-processor/ChibiOS//os/hal/ports/STM32/LLD/USARTv1/serial_lld.h"
ARM GAS  C:\Users\basil\AppData\Local\Temp\ccqLTTxu.s 			page 8


 390              		.file 46 "../../lib/e-puck2_main-processor/ChibiOS//os/hal/include/sdc.h"
 391              		.file 47 "../../lib/e-puck2_main-processor/ChibiOS//os/hal/ports/STM32/LLD/sdc_lld.h"
 392              		.file 48 "../../lib/e-puck2_main-processor/ChibiOS//os/hal/include/spi.h"
 393              		.file 49 "../../lib/e-puck2_main-processor/ChibiOS//os/hal/ports/STM32/LLD/SPIv1/spi_lld.h"
 394              		.file 50 "../../lib/e-puck2_main-processor/ChibiOS//os/hal/include/usb.h"
 395              		.file 51 "../../lib/e-puck2_main-processor/ChibiOS//os/hal/ports/STM32/LLD/OTGv1/usb_lld.h"
 396              		.file 52 "../../lib/e-puck2_main-processor/ChibiOS//os/hal/ports/STM32/LLD/OTGv1/stm32_otg.h"
 397              		.file 53 "../../lib/e-puck2_main-processor/ChibiOS//os/hal/include/serial_usb.h"
 398              		.file 54 "c:\\users\\basil\\documents\\tp_robotique\\eclipse_e-puck2\\tools\\gcc-arm-none-eabi-7-2
 399              		.file 55 "c:\\users\\basil\\documents\\tp_robotique\\eclipse_e-puck2\\tools\\gcc-arm-none-eabi-7-2
 400              		.file 56 "c:\\users\\basil\\documents\\tp_robotique\\eclipse_e-puck2\\tools\\gcc-arm-none-eabi-7-2
 401              		.file 57 "c:\\users\\basil\\documents\\tp_robotique\\eclipse_e-puck2\\tools\\gcc-arm-none-eabi-7-2
 402              		.file 58 "../../lib/e-puck2_main-processor/src/usbcfg.h"
 403              		.file 59 "../../lib/e-puck2_main-processor/ChibiOS_ext/os/hal/include/../ports/STM32/STM32F4xx/dcm
 404              		.file 60 "c:\\users\\basil\\documents\\tp_robotique\\eclipse_e-puck2\\tools\\gcc-arm-none-eabi-7-2
 405              		.file 61 "../../lib/e-puck2_main-processor/src/msgbus/messagebus.h"
 406              		.file 62 "c:\\users\\basil\\documents\\tp_robotique\\eclipse_e-puck2\\tools\\gcc-arm-none-eabi-7-2
 407              		.file 63 "../../lib/e-puck2_main-processor/src/parameter/parameter.h"
 408              		.file 64 "./main.h"
 409              		.file 65 "../../lib/e-puck2_main-processor/ChibiOS//os/rt/include/chthreads.h"
 410              		.file 66 "./process_image.h"
 411              		.file 67 "../../lib/e-puck2_main-processor/src/motors.h"