ARM GAS  C:\Users\basil\AppData\Local\Temp\ccHpV48s.s 			page 1


   1              		.cpu cortex-m4
   2              		.eabi_attribute 27, 1
   3              		.eabi_attribute 28, 1
   4              		.eabi_attribute 20, 1
   5              		.eabi_attribute 21, 1
   6              		.eabi_attribute 23, 3
   7              		.eabi_attribute 24, 1
   8              		.eabi_attribute 25, 1
   9              		.eabi_attribute 26, 1
  10              		.eabi_attribute 30, 2
  11              		.eabi_attribute 34, 1
  12              		.eabi_attribute 18, 4
  13              		.file	"process_image.c"
  14              		.text
  15              	.Ltext0:
  16              		.cfi_sections	.debug_frame
  17              		.section	.text.CaptureImage,"ax",%progbits
  18              		.align	1
  19              		.p2align 4,,15
  20              		.syntax unified
  21              		.thumb
  22              		.thumb_func
  23              		.fpu fpv4-sp-d16
  24              		.type	CaptureImage, %function
  25              	CaptureImage:
  26              	.LFB260:
  27              		.file 1 "process_image.c"
  28              		.loc 1 163 0
  29              		.cfi_startproc
  30              		@ Volatile: function does not return.
  31              		@ args = 0, pretend = 0, frame = 8
  32              		@ frame_needed = 0, uses_anonymous_args = 0
  33              	.LVL0:
  34 0000 80B5     		push	{r7, lr}
  35              		.cfi_def_cfa_offset 8
  36              		.cfi_offset 7, -8
  37              		.cfi_offset 14, -4
  38              	.LBB53:
  39              	.LBB54:
  40              		.file 2 "../../lib/e-puck2_main-processor/ChibiOS//os/rt/include/chregistry.h"
  41              		.loc 2 135 0
  42 0002 244C     		ldr	r4, .L8
  43              	.LBE54:
  44              	.LBE53:
  45              		.loc 1 163 0
  46 0004 244A     		ldr	r2, .L8+4
  47              	.LBB56:
  48              	.LBB55:
  49              		.loc 2 135 0
  50 0006 A369     		ldr	r3, [r4, #24]
  51 0008 2449     		ldr	r1, .L8+8
  52 000a 9961     		str	r1, [r3, #24]
  53              	.LBE55:
  54              	.LBE56:
  55              		.loc 1 163 0
  56 000c 86B0     		sub	sp, sp, #24
  57              		.cfi_def_cfa_offset 32
ARM GAS  C:\Users\basil\AppData\Local\Temp\ccHpV48s.s 			page 2


  58              		.loc 1 169 0
  59 000e 0223     		movs	r3, #2
  60 0010 2025     		movs	r5, #32
  61              		.loc 1 163 0
  62 0012 1668     		ldr	r6, [r2]
  63              		.loc 1 169 0
  64 0014 0093     		str	r3, [sp]
  65 0016 C822     		movs	r2, #200
  66 0018 4FF42073 		mov	r3, #640
  67 001c 0021     		movs	r1, #0
  68 001e CDE90155 		strd	r5, r5, [sp, #4]
  69 0022 3020     		movs	r0, #48
  70              	.LVL1:
  71              		.loc 1 163 0
  72 0024 0596     		str	r6, [sp, #20]
  73              		.loc 1 169 0
  74 0026 FFF7FEFF 		bl	po8030_advanced_config
  75              	.LVL2:
  76 002a 1D4E     		ldr	r6, .L8+12
  77              	.LBB57:
  78              	.LBB58:
  79              	.LBB59:
  80              	.LBB60:
  81              		.file 3 "../../lib/e-puck2_main-processor/ChibiOS//os/rt/include/chsys.h"
  82              		.loc 3 367 0
  83 002c 1D4F     		ldr	r7, .L8+16
  84              	.LBE60:
  85              	.LBE59:
  86              	.LBE58:
  87              	.LBE57:
  88              		.loc 1 170 0
  89 002e 0020     		movs	r0, #0
  90 0030 FFF7FEFF 		bl	po8030_set_awb
  91              	.LVL3:
  92              		.loc 1 171 0
  93 0034 FFF7FEFF 		bl	dcmi_enable_double_buffering
  94              	.LVL4:
  95              		.loc 1 172 0
  96 0038 0020     		movs	r0, #0
  97 003a FFF7FEFF 		bl	dcmi_set_capture_mode
  98              	.LVL5:
  99              	.LBB78:
 100              	.LBB75:
 101              	.LBB65:
 102              	.LBB66:
 103              		.file 4 "../../lib/e-puck2_main-processor/ChibiOS//os/rt/include/chbsem.h"
 104              		.loc 4 271 0
 105 003e B046     		mov	r8, r6
 106              	.LBE66:
 107              	.LBE65:
 108              	.LBE75:
 109              	.LBE78:
 110              		.loc 1 173 0
 111 0040 FFF7FEFF 		bl	dcmi_prepare
 112              	.LVL6:
 113 0044 13E0     		b	.L4
 114              	.LVL7:
ARM GAS  C:\Users\basil\AppData\Local\Temp\ccHpV48s.s 			page 3


 115              	.L2:
 116              	.LBB79:
 117              	.LBB76:
 118              		.loc 4 286 0
 119 0046 FFF7FEFF 		bl	chSchRescheduleS
 120              	.LVL8:
 121              	.LBB68:
 122              	.LBB64:
 123              		.loc 3 360 0
 124 004a FFF7FEFF 		bl	_dbg_check_unlock
 125              	.LVL9:
 126              		.loc 3 361 0
 127 004e FFF7FEFF 		bl	_stats_stop_measure_crit_thd
 128              	.LVL10:
 129              		.loc 3 367 0
 130 0052 2368     		ldr	r3, [r4]
 131 0054 A342     		cmp	r3, r4
 132 0056 07D0     		beq	.L3
 133 0058 A269     		ldr	r2, [r4, #24]
 134 005a 9B68     		ldr	r3, [r3, #8]
 135 005c 9268     		ldr	r2, [r2, #8]
 136 005e 9A42     		cmp	r2, r3
 137 0060 02D2     		bcs	.L3
 138 0062 3846     		mov	r0, r7
 139 0064 FFF7FEFF 		bl	chSysHalt
 140              	.LVL11:
 141              	.L3:
 142              	.LBB61:
 143              	.LBB62:
 144              	.LBB63:
 145              		.file 5 "../../lib/e-puck2_main-processor/ChibiOS//os/ext/CMSIS/include/core_cmFunc.h"
 146              		.loc 5 546 0
 147 0068 0023     		movs	r3, #0
 148              		.syntax unified
 149              	@ 546 "../../lib/e-puck2_main-processor/ChibiOS//os/ext/CMSIS/include/core_cmFunc.h" 1
 150 006a 83F31188 		MSR basepri, r3
 151              	@ 0 "" 2
 152              	.LVL12:
 153              		.thumb
 154              		.syntax unified
 155              	.L4:
 156              	.LBE63:
 157              	.LBE62:
 158              	.LBE61:
 159              	.LBE64:
 160              	.LBE68:
 161              	.LBE76:
 162              	.LBE79:
 163              		.loc 1 177 0 discriminator 1
 164 006e FFF7FEFF 		bl	dcmi_capture_start
 165              	.LVL13:
 166              		.loc 1 179 0 discriminator 1
 167 0072 FFF7FEFF 		bl	wait_image_ready
 168              	.LVL14:
 169              	.LBB80:
 170              	.LBB77:
 171              	.LBB69:
ARM GAS  C:\Users\basil\AppData\Local\Temp\ccHpV48s.s 			page 4


 172              	.LBB70:
 173              	.LBB71:
 174              	.LBB72:
 175              	.LBB73:
 176              		.loc 5 546 0 discriminator 1
 177              		.syntax unified
 178              	@ 546 "../../lib/e-puck2_main-processor/ChibiOS//os/ext/CMSIS/include/core_cmFunc.h" 1
 179 0076 85F31188 		MSR basepri, r5
 180              	@ 0 "" 2
 181              	.LVL15:
 182              		.thumb
 183              		.syntax unified
 184              	.LBE73:
 185              	.LBE72:
 186              	.LBE71:
 187              		.loc 3 349 0 discriminator 1
 188 007a FFF7FEFF 		bl	_stats_start_measure_crit_thd
 189              	.LVL16:
 190              		.loc 3 350 0 discriminator 1
 191 007e FFF7FEFF 		bl	_dbg_check_lock
 192              	.LVL17:
 193              	.LBE70:
 194              	.LBE69:
 195              	.LBB74:
 196              	.LBB67:
 197              		.loc 4 268 0 discriminator 1
 198 0082 FFF7FEFF 		bl	chDbgCheckClassI
 199              	.LVL18:
 200              		.loc 4 270 0 discriminator 1
 201 0086 B368     		ldr	r3, [r6, #8]
 202 0088 002B     		cmp	r3, #0
 203 008a DCDC     		bgt	.L2
 204              		.loc 4 271 0
 205 008c 4046     		mov	r0, r8
 206 008e FFF7FEFF 		bl	chSemSignalI
 207              	.LVL19:
 208 0092 D8E7     		b	.L2
 209              	.L9:
 210              		.align	2
 211              	.L8:
 212 0094 00000000 		.word	ch
 213 0098 00000000 		.word	__stack_chk_guard
 214 009c 00000000 		.word	.LANCHOR0
 215 00a0 00000000 		.word	.LANCHOR1
 216 00a4 00000000 		.word	.LANCHOR2
 217              	.LBE67:
 218              	.LBE74:
 219              	.LBE77:
 220              	.LBE80:
 221              		.cfi_endproc
 222              	.LFE260:
 223              		.size	CaptureImage, .-CaptureImage
 224              		.section	.text.extract_line_width,"ax",%progbits
 225              		.align	1
 226              		.p2align 4,,15
 227              		.global	extract_line_width
 228              		.syntax unified
ARM GAS  C:\Users\basil\AppData\Local\Temp\ccHpV48s.s 			page 5


 229              		.thumb
 230              		.thumb_func
 231              		.fpu fpv4-sp-d16
 232              		.type	extract_line_width, %function
 233              	extract_line_width:
 234              	.LFB257:
 235              		.loc 1 37 0
 236              		.cfi_startproc
 237              		@ args = 0, pretend = 0, frame = 16
 238              		@ frame_needed = 0, uses_anonymous_args = 0
 239              	.LVL20:
 240 0000 2DE9F04F 		push	{r4, r5, r6, r7, r8, r9, r10, fp, lr}
 241              		.cfi_def_cfa_offset 36
 242              		.cfi_offset 4, -36
 243              		.cfi_offset 5, -32
 244              		.cfi_offset 6, -28
 245              		.cfi_offset 7, -24
 246              		.cfi_offset 8, -20
 247              		.cfi_offset 9, -16
 248              		.cfi_offset 10, -12
 249              		.cfi_offset 11, -8
 250              		.cfi_offset 14, -4
 251 0004 DFF82C91 		ldr	r9, .L51+12
 252 0008 85B0     		sub	sp, sp, #20
 253              		.cfi_def_cfa_offset 56
 254              		.loc 1 37 0
 255 000a D9F80030 		ldr	r3, [r9]
 256 000e 0393     		str	r3, [sp, #12]
 257              	.LVL21:
 258 0010 0192     		str	r2, [sp, #4]
 259 0012 431E     		subs	r3, r0, #1
 260 0014 00F27F25 		addw	r5, r0, #639
 261              		.loc 1 41 0
 262 0018 0022     		movs	r2, #0
 263              	.LVL22:
 264              	.L11:
 265              	.LBB81:
 266              		.loc 1 47 0 discriminator 3
 267 001a 13F8014F 		ldrb	r4, [r3, #1]!	@ zero_extendqisi2
 268              		.loc 1 46 0 discriminator 3
 269 001e AB42     		cmp	r3, r5
 270              		.loc 1 47 0 discriminator 3
 271 0020 2244     		add	r2, r2, r4
 272              	.LVL23:
 273              		.loc 1 46 0 discriminator 3
 274 0022 FAD1     		bne	.L11
 275              	.LBE81:
 276              		.loc 1 49 0
 277 0024 404B     		ldr	r3, .L51
 278 0026 DFF81081 		ldr	r8, .L51+16
 279 002a 0578     		ldrb	r5, [r0]	@ zero_extendqisi2
 280 002c B8F800B0 		ldrh	fp, [r8]
 281 0030 4FF0000C 		mov	ip, #0
 282 0034 A3FB0223 		umull	r2, r3, r3, r2
 283              	.LVL24:
 284 0038 5B0A     		lsrs	r3, r3, #9
 285              	.LVL25:
ARM GAS  C:\Users\basil\AppData\Local\Temp\ccHpV48s.s 			page 6


 286              		.loc 1 40 0
 287 003a E646     		mov	lr, ip
 288              		.loc 1 39 0
 289 003c 6446     		mov	r4, ip
 290              	.LVL26:
 291              	.L12:
 292 003e 621C     		adds	r2, r4, #1
 293              		.loc 1 58 0
 294 0040 9D42     		cmp	r5, r3
 295 0042 92B2     		uxth	r2, r2
 296 0044 27D2     		bcs	.L13
 297              	.L48:
 298              		.loc 1 58 0 is_stmt 0 discriminator 1
 299 0046 0519     		adds	r5, r0, r4
 300 0048 ED7B     		ldrb	r5, [r5, #15]	@ zero_extendqisi2
 301 004a 9D42     		cmp	r5, r3
 302 004c 23D9     		bls	.L13
 303              		.loc 1 58 0 discriminator 2
 304 004e B42D     		cmp	r5, #180
 305 0050 21D9     		bls	.L13
 306              	.LVL27:
 307              		.loc 1 67 0 is_stmt 1
 308 0052 B2F51C7F 		cmp	r2, #624
 309 0056 2BD8     		bhi	.L15
 310              		.loc 1 67 0 is_stmt 0 discriminator 1
 311 0058 54B3     		cbz	r4, .L15
 312 005a 571E     		subs	r7, r2, #1
 313 005c 0744     		add	r7, r7, r0
 314              	.LVL28:
 315              	.L22:
 316              		.loc 1 73 0 is_stmt 1
 317 005e 17F8015F 		ldrb	r5, [r7, #1]!	@ zero_extendqisi2
 318 0062 9D42     		cmp	r5, r3
 319 0064 96B2     		uxth	r6, r2
 320 0066 1CD2     		bcs	.L17
 321              		.loc 1 73 0 is_stmt 0 discriminator 1
 322 0068 17F80FAC 		ldrb	r10, [r7, #-15]	@ zero_extendqisi2
 323 006c 9A45     		cmp	r10, r3
 324 006e 18D9     		bls	.L17
 325              	.LVL29:
 326              		.loc 1 94 0 is_stmt 1
 327 0070 BEF1000F 		cmp	lr, #0
 328 0074 4DD1     		bne	.L47
 329              		.loc 1 94 0 is_stmt 0 discriminator 1
 330 0076 92B2     		uxth	r2, r2
 331 0078 171B     		subs	r7, r2, r4
 332 007a 4F2F     		cmp	r7, #79
 333 007c 35DC     		bgt	.L25
 334              	.LVL30:
 335              		.loc 1 54 0 is_stmt 1
 336 007e B6F51C7F 		cmp	r6, #624
 337 0082 15D8     		bhi	.L15
 338 0084 3446     		mov	r4, r6
 339 0086 4FF0010C 		mov	ip, #1
 340 008a 621C     		adds	r2, r4, #1
 341              		.loc 1 58 0
 342 008c 9D42     		cmp	r5, r3
ARM GAS  C:\Users\basil\AppData\Local\Temp\ccHpV48s.s 			page 7


 343              		.loc 1 100 0
 344 008e F346     		mov	fp, lr
 345 0090 92B2     		uxth	r2, r2
 346              		.loc 1 101 0
 347 0092 E646     		mov	lr, ip
 348              		.loc 1 58 0
 349 0094 D7D3     		bcc	.L48
 350              	.LVL31:
 351              	.L13:
 352              		.loc 1 54 0 discriminator 1
 353 0096 B2F51C7F 		cmp	r2, #624
 354 009a 09D8     		bhi	.L15
 355 009c 855C     		ldrb	r5, [r0, r2]	@ zero_extendqisi2
 356              	.LVL32:
 357              		.loc 1 54 0 is_stmt 0
 358 009e 1446     		mov	r4, r2
 359 00a0 CDE7     		b	.L12
 360              	.LVL33:
 361              	.L17:
 362 00a2 0136     		adds	r6, r6, #1
 363 00a4 B6B2     		uxth	r6, r6
 364              	.LVL34:
 365              		.loc 1 71 0 is_stmt 1
 366 00a6 B6F5207F 		cmp	r6, #640
 367 00aa 02F10102 		add	r2, r2, #1
 368 00ae D6D1     		bne	.L22
 369              	.LVL35:
 370              	.L15:
 371              		.loc 1 84 0
 372 00b0 0023     		movs	r3, #0
 373              	.LVL36:
 374 00b2 A8F80030 		strh	r3, [r8]	@ movhi
 375              	.LVL37:
 376              	.L23:
 377              		.loc 1 110 0
 378 00b6 1D4B     		ldr	r3, .L51+4
 379 00b8 1888     		ldrh	r0, [r3]
 380              	.LVL38:
 381              	.L30:
 382              		.loc 1 117 0
 383 00ba DFED1D6A 		vldr.32	s13, .L51+8
 384              		.loc 1 122 0
 385 00be 039A     		ldr	r2, [sp, #12]
 386 00c0 D9F80030 		ldr	r3, [r9]
 387              		.loc 1 117 0
 388 00c4 07EE900A 		vmov	s15, r0	@ int
 389 00c8 F8EEE77A 		vcvt.f32.s32	s15, s15
 390 00cc 86EEA77A 		vdiv.f32	s14, s13, s15
 391 00d0 F3EE097A 		vmov.f32	s15, #2.5e+1
 392              		.loc 1 118 0
 393 00d4 B4EE677A 		vcmp.f32	s14, s15
 394 00d8 F1EE10FA 		vmrs	APSR_nzcv, FPSCR
 395              		.loc 1 122 0
 396 00dc C8BF     		it	gt
 397 00de 3E20     		movgt	r0, #62
 398              	.LVL39:
 399 00e0 9A42     		cmp	r2, r3
ARM GAS  C:\Users\basil\AppData\Local\Temp\ccHpV48s.s 			page 8


 400 00e2 1FD1     		bne	.L49
 401 00e4 05B0     		add	sp, sp, #20
 402              		.cfi_remember_state
 403              		.cfi_def_cfa_offset 36
 404              		@ sp needed
 405 00e6 BDE8F08F 		pop	{r4, r5, r6, r7, r8, r9, r10, fp, pc}
 406              	.LVL40:
 407              	.L25:
 408              		.cfi_restore_state
 409 00ea BCF1000F 		cmp	ip, #0
 410 00ee 16D1     		bne	.L50
 411              	.L27:
 412              	.LVL41:
 413              		.loc 1 106 0
 414 00f0 2244     		add	r2, r2, r4
 415 00f2 5310     		asrs	r3, r2, #1
 416              	.LVL42:
 417 00f4 C25C     		ldrb	r2, [r0, r3]	@ zero_extendqisi2
 418 00f6 C95C     		ldrb	r1, [r1, r3]	@ zero_extendqisi2
 419              	.LVL43:
 420 00f8 9142     		cmp	r1, r2
 421 00fa DCD8     		bhi	.L23
 422              		.loc 1 107 0
 423 00fc 0199     		ldr	r1, [sp, #4]
 424 00fe C95C     		ldrb	r1, [r1, r3]	@ zero_extendqisi2
 425 0100 9142     		cmp	r1, r2
 426 0102 D8D8     		bhi	.L23
 427              		.loc 1 112 0
 428 0104 301B     		subs	r0, r6, r4
 429              	.LVL44:
 430 0106 094A     		ldr	r2, .L51+4
 431              		.loc 1 113 0
 432 0108 A8F80030 		strh	r3, [r8]	@ movhi
 433              		.loc 1 112 0
 434 010c 80B2     		uxth	r0, r0
 435              	.LVL45:
 436 010e 1080     		strh	r0, [r2]	@ movhi
 437 0110 D3E7     		b	.L30
 438              	.LVL46:
 439              	.L47:
 440 0112 BCF1000F 		cmp	ip, #0
 441 0116 CED0     		beq	.L23
 442 0118 A8F800B0 		strh	fp, [r8]	@ movhi
 443 011c CBE7     		b	.L23
 444              	.L50:
 445 011e A8F800B0 		strh	fp, [r8]	@ movhi
 446 0122 E5E7     		b	.L27
 447              	.LVL47:
 448              	.L49:
 449              		.loc 1 122 0
 450 0124 FFF7FEFF 		bl	__stack_chk_fail
 451              	.LVL48:
 452              	.L52:
 453              		.align	2
 454              	.L51:
 455 0128 CDCCCCCC 		.word	-858993459
 456 012c 00000000 		.word	.LANCHOR4
ARM GAS  C:\Users\basil\AppData\Local\Temp\ccHpV48s.s 			page 9


 457 0130 0040C444 		.word	1153712128
 458 0134 00000000 		.word	__stack_chk_guard
 459 0138 00000000 		.word	.LANCHOR3
 460              		.cfi_endproc
 461              	.LFE257:
 462              		.size	extract_line_width, .-extract_line_width
 463              		.section	.text.mean_buff,"ax",%progbits
 464              		.align	1
 465              		.p2align 4,,15
 466              		.global	mean_buff
 467              		.syntax unified
 468              		.thumb
 469              		.thumb_func
 470              		.fpu fpv4-sp-d16
 471              		.type	mean_buff, %function
 472              	mean_buff:
 473              	.LFB258:
 474              		.loc 1 125 0
 475              		.cfi_startproc
 476              		@ args = 0, pretend = 0, frame = 8
 477              		@ frame_needed = 0, uses_anonymous_args = 0
 478              	.LVL49:
 479 0000 10B5     		push	{r4, lr}
 480              		.cfi_def_cfa_offset 8
 481              		.cfi_offset 4, -8
 482              		.cfi_offset 14, -4
 483 0002 0D4C     		ldr	r4, .L59
 484 0004 82B0     		sub	sp, sp, #8
 485              		.cfi_def_cfa_offset 16
 486              		.loc 1 125 0
 487 0006 2368     		ldr	r3, [r4]
 488 0008 0193     		str	r3, [sp, #4]
 489              	.LVL50:
 490              		.loc 1 126 0
 491 000a 0022     		movs	r2, #0
 492 000c 431E     		subs	r3, r0, #1
 493 000e 00F27F20 		addw	r0, r0, #639
 494              	.LVL51:
 495              	.L54:
 496              	.LBB82:
 497              		.loc 1 128 0 discriminator 3
 498 0012 13F8011F 		ldrb	r1, [r3, #1]!	@ zero_extendqisi2
 499              	.LVL52:
 500              		.loc 1 127 0 discriminator 3
 501 0016 8342     		cmp	r3, r0
 502              		.loc 1 128 0 discriminator 3
 503 0018 0A44     		add	r2, r2, r1
 504              	.LVL53:
 505              		.loc 1 127 0 discriminator 3
 506 001a FAD1     		bne	.L54
 507              	.LVL54:
 508              	.LBE82:
 509              		.loc 1 132 0
 510 001c 0199     		ldr	r1, [sp, #4]
 511              		.loc 1 130 0
 512 001e 0748     		ldr	r0, .L59+4
 513              	.LVL55:
ARM GAS  C:\Users\basil\AppData\Local\Temp\ccHpV48s.s 			page 10


 514              		.loc 1 132 0
 515 0020 2368     		ldr	r3, [r4]
 516              	.LVL56:
 517              		.loc 1 130 0
 518 0022 A0FB0220 		umull	r2, r0, r0, r2
 519              	.LVL57:
 520              		.loc 1 132 0
 521 0026 9942     		cmp	r1, r3
 522 0028 4FEA5020 		lsr	r0, r0, #9
 523 002c 01D1     		bne	.L58
 524 002e 02B0     		add	sp, sp, #8
 525              		.cfi_remember_state
 526              		.cfi_def_cfa_offset 8
 527              		@ sp needed
 528 0030 10BD     		pop	{r4, pc}
 529              	.L58:
 530              		.cfi_restore_state
 531 0032 FFF7FEFF 		bl	__stack_chk_fail
 532              	.LVL58:
 533              	.L60:
 534 0036 00BF     		.align	2
 535              	.L59:
 536 0038 00000000 		.word	__stack_chk_guard
 537 003c CDCCCCCC 		.word	-858993459
 538              		.cfi_endproc
 539              	.LFE258:
 540              		.size	mean_buff, .-mean_buff
 541              		.section	.text.extract_color,"ax",%progbits
 542              		.align	1
 543              		.p2align 4,,15
 544              		.global	extract_color
 545              		.syntax unified
 546              		.thumb
 547              		.thumb_func
 548              		.fpu fpv4-sp-d16
 549              		.type	extract_color, %function
 550              	extract_color:
 551              	.LFB259:
 552              		.loc 1 134 0
 553              		.cfi_startproc
 554              		@ args = 0, pretend = 0, frame = 8
 555              		@ frame_needed = 0, uses_anonymous_args = 0
 556              	.LVL59:
 557 0000 10B5     		push	{r4, lr}
 558              		.cfi_def_cfa_offset 8
 559              		.cfi_offset 4, -8
 560              		.cfi_offset 14, -4
 561              		.loc 1 136 0
 562 0002 90F84031 		ldrb	r3, [r0, #320]	@ zero_extendqisi2
 563 0006 9FED3A7A 		vldr.32	s14, .L93
 564              		.loc 1 134 0
 565 000a 3A4C     		ldr	r4, .L93+4
 566              		.loc 1 136 0
 567 000c 07EE903A 		vmov	s15, r3	@ int
 568 0010 F8EEE77A 		vcvt.f32.s32	s15, s15
 569              		.loc 1 134 0
 570 0014 82B0     		sub	sp, sp, #8
ARM GAS  C:\Users\basil\AppData\Local\Temp\ccHpV48s.s 			page 11


 571              		.cfi_def_cfa_offset 16
 572              		.loc 1 136 0
 573 0016 F4EEC77A 		vcmpe.f32	s15, s14
 574              		.loc 1 134 0
 575 001a 2368     		ldr	r3, [r4]
 576 001c 0193     		str	r3, [sp, #4]
 577              		.loc 1 136 0
 578 001e F1EE10FA 		vmrs	APSR_nzcv, FPSCR
 579 0022 15DD     		ble	.L62
 580              		.loc 1 137 0 discriminator 1
 581 0024 91F84031 		ldrb	r3, [r1, #320]	@ zero_extendqisi2
 582 0028 06EE903A 		vmov	s13, r3	@ int
 583 002c F8EEE66A 		vcvt.f32.s32	s13, s13
 584              		.loc 1 136 0 discriminator 1
 585 0030 F4EEC76A 		vcmpe.f32	s13, s14
 586 0034 F1EE10FA 		vmrs	APSR_nzcv, FPSCR
 587 0038 0AD5     		bpl	.L62
 588              		.loc 1 138 0
 589 003a 92F84031 		ldrb	r3, [r2, #320]	@ zero_extendqisi2
 590 003e 06EE903A 		vmov	s13, r3	@ int
 591 0042 F8EEE66A 		vcvt.f32.s32	s13, s13
 592              		.loc 1 137 0
 593 0046 F4EEC76A 		vcmpe.f32	s13, s14
 594 004a F1EE10FA 		vmrs	APSR_nzcv, FPSCR
 595 004e 3DD4     		bmi	.L89
 596              	.L62:
 597              		.loc 1 142 0
 598 0050 9FED277A 		vldr.32	s14, .L93
 599 0054 F4EEC77A 		vcmpe.f32	s15, s14
 600 0058 F1EE10FA 		vmrs	APSR_nzcv, FPSCR
 601 005c 06D4     		bmi	.L90
 602              	.L87:
 603              		.loc 1 159 0
 604 005e 0020     		movs	r0, #0
 605              	.LVL60:
 606              	.L66:
 607              		.loc 1 160 0
 608 0060 019A     		ldr	r2, [sp, #4]
 609 0062 2368     		ldr	r3, [r4]
 610 0064 9A42     		cmp	r2, r3
 611 0066 41D1     		bne	.L91
 612 0068 02B0     		add	sp, sp, #8
 613              		.cfi_remember_state
 614              		.cfi_def_cfa_offset 8
 615              		@ sp needed
 616 006a 10BD     		pop	{r4, pc}
 617              	.LVL61:
 618              	.L90:
 619              		.cfi_restore_state
 620              		.loc 1 143 0 discriminator 1
 621 006c 91F84031 		ldrb	r3, [r1, #320]	@ zero_extendqisi2
 622 0070 07EE903A 		vmov	s15, r3	@ int
 623 0074 F8EEE77A 		vcvt.f32.s32	s15, s15
 624              		.loc 1 142 0 discriminator 1
 625 0078 F4EEC77A 		vcmpe.f32	s15, s14
 626 007c F1EE10FA 		vmrs	APSR_nzcv, FPSCR
 627 0080 0ADD     		ble	.L68
ARM GAS  C:\Users\basil\AppData\Local\Temp\ccHpV48s.s 			page 12


 628              		.loc 1 144 0
 629 0082 92F84031 		ldrb	r3, [r2, #320]	@ zero_extendqisi2
 630 0086 06EE903A 		vmov	s13, r3	@ int
 631 008a F8EEE66A 		vcvt.f32.s32	s13, s13
 632              		.loc 1 143 0
 633 008e F4EEC76A 		vcmpe.f32	s13, s14
 634 0092 F1EE10FA 		vmrs	APSR_nzcv, FPSCR
 635 0096 21D4     		bmi	.L92
 636              	.L68:
 637              	.LVL62:
 638              	.LBB85:
 639              	.LBB86:
 640              		.loc 1 148 0
 641 0098 9FED157A 		vldr.32	s14, .L93
 642 009c F4EEC77A 		vcmpe.f32	s15, s14
 643 00a0 F1EE10FA 		vmrs	APSR_nzcv, FPSCR
 644 00a4 DBD5     		bpl	.L87
 645              		.loc 1 150 0
 646 00a6 92F84031 		ldrb	r3, [r2, #320]	@ zero_extendqisi2
 647 00aa 07EE903A 		vmov	s15, r3	@ int
 648 00ae F8EEE77A 		vcvt.f32.s32	s15, s15
 649              		.loc 1 149 0
 650 00b2 F4EEC77A 		vcmpe.f32	s15, s14
 651 00b6 F1EE10FA 		vmrs	APSR_nzcv, FPSCR
 652 00ba D0DD     		ble	.L87
 653              		.loc 1 151 0
 654 00bc 0022     		movs	r2, #0
 655              	.LVL63:
 656 00be 0220     		movs	r0, #2
 657              	.LVL64:
 658 00c0 1146     		mov	r1, r2
 659              	.LVL65:
 660 00c2 3223     		movs	r3, #50
 661 00c4 FFF7FEFF 		bl	set_rgb_led
 662              	.LVL66:
 663              		.loc 1 153 0
 664 00c8 0120     		movs	r0, #1
 665 00ca C9E7     		b	.L66
 666              	.LVL67:
 667              	.L89:
 668              	.LBE86:
 669              	.LBE85:
 670              		.loc 1 139 0
 671 00cc 0023     		movs	r3, #0
 672 00ce 0220     		movs	r0, #2
 673              	.LVL68:
 674 00d0 1946     		mov	r1, r3
 675              	.LVL69:
 676 00d2 3222     		movs	r2, #50
 677              	.LVL70:
 678 00d4 FFF7FEFF 		bl	set_rgb_led
 679              	.LVL71:
 680              		.loc 1 141 0
 681 00d8 0220     		movs	r0, #2
 682 00da C1E7     		b	.L66
 683              	.LVL72:
 684              	.L92:
ARM GAS  C:\Users\basil\AppData\Local\Temp\ccHpV48s.s 			page 13


 685              		.loc 1 145 0
 686 00dc 0023     		movs	r3, #0
 687 00de 0220     		movs	r0, #2
 688              	.LVL73:
 689 00e0 1A46     		mov	r2, r3
 690              	.LVL74:
 691 00e2 3221     		movs	r1, #50
 692              	.LVL75:
 693 00e4 FFF7FEFF 		bl	set_rgb_led
 694              	.LVL76:
 695              		.loc 1 147 0
 696 00e8 0320     		movs	r0, #3
 697 00ea B9E7     		b	.L66
 698              	.L91:
 699              		.loc 1 160 0
 700 00ec FFF7FEFF 		bl	__stack_chk_fail
 701              	.LVL77:
 702              	.L94:
 703              		.align	2
 704              	.L93:
 705 00f0 CDCCCC42 		.word	1120718029
 706 00f4 00000000 		.word	__stack_chk_guard
 707              		.cfi_endproc
 708              	.LFE259:
 709              		.size	extract_color, .-extract_color
 710              		.section	.text.ProcessImage,"ax",%progbits
 711              		.align	1
 712              		.p2align 4,,15
 713              		.syntax unified
 714              		.thumb
 715              		.thumb_func
 716              		.fpu fpv4-sp-d16
 717              		.type	ProcessImage, %function
 718              	ProcessImage:
 719              	.LFB261:
 720              		.loc 1 186 0
 721              		.cfi_startproc
 722              		@ args = 0, pretend = 0, frame = 8
 723              		@ frame_needed = 0, uses_anonymous_args = 0
 724              	.LVL78:
 725 0000 2DE9F04F 		push	{r4, r5, r6, r7, r8, r9, r10, fp, lr}
 726              		.cfi_def_cfa_offset 36
 727              		.cfi_offset 4, -36
 728              		.cfi_offset 5, -32
 729              		.cfi_offset 6, -28
 730              		.cfi_offset 7, -24
 731              		.cfi_offset 8, -20
 732              		.cfi_offset 9, -16
 733              		.cfi_offset 10, -12
 734              		.cfi_offset 11, -8
 735              		.cfi_offset 14, -4
 736 0004 2DED028B 		vpush.64	{d8}
 737              		.cfi_def_cfa_offset 44
 738              		.cfi_offset 80, -44
 739              		.cfi_offset 81, -40
 740              	.LBB87:
 741              	.LBB88:
ARM GAS  C:\Users\basil\AppData\Local\Temp\ccHpV48s.s 			page 14


 742              		.loc 2 135 0
 743 0008 464A     		ldr	r2, .L119
 744              	.LBE88:
 745              	.LBE87:
 746              		.loc 1 186 0
 747 000a 474B     		ldr	r3, .L119+4
 748              	.LBB91:
 749              	.LBB89:
 750              		.loc 2 135 0
 751 000c 9269     		ldr	r2, [r2, #24]
 752 000e 4749     		ldr	r1, .L119+8
 753              	.LBE89:
 754              	.LBE91:
 755              		.loc 1 186 0
 756 0010 1B68     		ldr	r3, [r3]
 757 0012 DFF834A1 		ldr	r10, .L119+36
 758 0016 464D     		ldr	r5, .L119+12
 759 0018 464C     		ldr	r4, .L119+16
 760 001a 474F     		ldr	r7, .L119+20
 761 001c DFF83491 		ldr	r9, .L119+48
 762              		.loc 1 257 0
 763 0020 DFED468A 		vldr.32	s17, .L119+24
 764 0024 464E     		ldr	r6, .L119+28
 765              	.LBB92:
 766              	.LBB93:
 767              		.loc 4 143 0
 768 0026 DFF83081 		ldr	r8, .L119+52
 769              	.LBE93:
 770              	.LBE92:
 771              		.loc 1 259 0
 772 002a 9FED468A 		vldr.32	s16, .L119+32
 773              	.LBB95:
 774              	.LBB90:
 775              		.loc 2 135 0
 776 002e 9161     		str	r1, [r2, #24]
 777              	.LBE90:
 778              	.LBE95:
 779              		.loc 1 186 0
 780 0030 83B0     		sub	sp, sp, #12
 781              		.cfi_def_cfa_offset 56
 782              		.loc 1 186 0
 783 0032 0193     		str	r3, [sp, #4]
 784              	.LVL79:
 785              	.L96:
 786              	.LBB96:
 787              	.LBB94:
 788              		.loc 4 143 0
 789 0034 4046     		mov	r0, r8
 790 0036 FFF7FEFF 		bl	chSemWait
 791              	.LVL80:
 792              	.LBE94:
 793              	.LBE96:
 794              		.loc 1 207 0
 795 003a FFF7FEFF 		bl	dcmi_get_last_image_ptr
 796              	.LVL81:
 797 003e 0022     		movs	r2, #0
 798 0040 0146     		mov	r1, r0
ARM GAS  C:\Users\basil\AppData\Local\Temp\ccHpV48s.s 			page 15


 799 0042 00F5A06E 		add	lr, r0, #1280
 800              	.LVL82:
 801              	.L97:
 802              	.LBB97:
 803              		.loc 1 212 0 discriminator 3
 804 0046 835C     		ldrb	r3, [r0, r2]	@ zero_extendqisi2
 805 0048 C2F34E0C 		ubfx	ip, r2, #1, #15
 806 004c 23F00703 		bic	r3, r3, #7
 807 0050 0AF80C30 		strb	r3, [r10, ip]
 808              		.loc 1 213 0 discriminator 3
 809 0054 4B78     		ldrb	r3, [r1, #1]	@ zero_extendqisi2
 810 0056 DB00     		lsls	r3, r3, #3
 811 0058 05F80C30 		strb	r3, [r5, ip]
 812              		.loc 1 214 0 discriminator 3
 813 005c 4B78     		ldrb	r3, [r1, #1]	@ zero_extendqisi2
 814 005e 10F802B0 		ldrb	fp, [r0, r2]	@ zero_extendqisi2
 815 0062 DB10     		asrs	r3, r3, #3
 816 0064 03F01C03 		and	r3, r3, #28
 817 0068 0231     		adds	r1, r1, #2
 818 006a 03EB4B13 		add	r3, r3, fp, lsl #5
 819              		.loc 1 210 0 discriminator 3
 820 006e 7145     		cmp	r1, lr
 821              		.loc 1 214 0 discriminator 3
 822 0070 04F80C30 		strb	r3, [r4, ip]
 823              	.LVL83:
 824 0074 02F10202 		add	r2, r2, #2
 825              	.LVL84:
 826              		.loc 1 210 0 discriminator 3
 827 0078 E5D1     		bne	.L97
 828              	.LBE97:
 829              		.loc 1 217 0
 830 007a FFF7FEFF 		bl	get_current_main_state
 831              	.LVL85:
 832 007e 0346     		mov	r3, r0
 833 0080 78B9     		cbnz	r0, .L117
 834              		.loc 1 226 0
 835 0082 2B4A     		ldr	r2, .L119+12
 836 0084 3049     		ldr	r1, .L119+36
 837 0086 2B48     		ldr	r0, .L119+16
 838              		.loc 1 220 0
 839 0088 3B70     		strb	r3, [r7]
 840              		.loc 1 226 0
 841 008a FFF7FEFF 		bl	extract_color
 842              	.LVL86:
 843 008e 0028     		cmp	r0, #0
 844 0090 D0D0     		beq	.L96
 845              		.loc 1 227 0
 846 0092 274A     		ldr	r2, .L119+12
 847 0094 2C49     		ldr	r1, .L119+36
 848 0096 2748     		ldr	r0, .L119+16
 849 0098 FFF7FEFF 		bl	extract_color
 850              	.LVL87:
 851 009c 89F80000 		strb	r0, [r9]
 852 00a0 C8E7     		b	.L96
 853              	.L117:
 854              		.loc 1 233 0
 855 00a2 99F80030 		ldrb	r3, [r9]	@ zero_extendqisi2
ARM GAS  C:\Users\basil\AppData\Local\Temp\ccHpV48s.s 			page 16


 856              		.loc 1 218 0
 857 00a6 0122     		movs	r2, #1
 858              		.loc 1 233 0
 859 00a8 022B     		cmp	r3, #2
 860              		.loc 1 218 0
 861 00aa 3A70     		strb	r2, [r7]
 862              		.loc 1 233 0
 863 00ac 32D0     		beq	.L100
 864 00ae 032B     		cmp	r3, #3
 865 00b0 28D0     		beq	.L101
 866 00b2 9342     		cmp	r3, r2
 867 00b4 1ED0     		beq	.L102
 868 00b6 254B     		ldr	r3, .L119+40
 869 00b8 1888     		ldrh	r0, [r3]
 870              	.L103:
 871              		.loc 1 256 0
 872 00ba 70B1     		cbz	r0, .L105
 873              		.loc 1 257 0
 874 00bc 07EE900A 		vmov	s15, r0	@ int
 875 00c0 F8EEE77A 		vcvt.f32.s32	s15, s15
 876 00c4 224B     		ldr	r3, .L119+44
 877 00c6 88EEA77A 		vdiv.f32	s14, s17, s15
 878 00ca 83ED007A 		vstr.32	s14, [r3]
 879              		.loc 1 260 0
 880 00ce 3378     		ldrb	r3, [r6]	@ zero_extendqisi2
 881 00d0 4BB9     		cbnz	r3, .L118
 882              	.L107:
 883              		.loc 1 265 0
 884 00d2 83F00103 		eor	r3, r3, #1
 885 00d6 3370     		strb	r3, [r6]
 886              		.loc 1 267 0
 887 00d8 ACE7     		b	.L96
 888              	.L105:
 889              		.loc 1 259 0
 890 00da 1D4B     		ldr	r3, .L119+44
 891 00dc 83ED008A 		vstr.32	s16, [r3]
 892              		.loc 1 260 0
 893 00e0 3378     		ldrb	r3, [r6]	@ zero_extendqisi2
 894 00e2 002B     		cmp	r3, #0
 895 00e4 F5D0     		beq	.L107
 896              	.L118:
 897              		.loc 1 262 0
 898 00e6 4FF42071 		mov	r1, #640
 899 00ea 1248     		ldr	r0, .L119+16
 900 00ec FFF7FEFF 		bl	SendUint8ToComputer
 901              	.LVL88:
 902 00f0 3378     		ldrb	r3, [r6]	@ zero_extendqisi2
 903 00f2 EEE7     		b	.L107
 904              	.L102:
 905              		.loc 1 251 0
 906 00f4 144A     		ldr	r2, .L119+36
 907 00f6 0F49     		ldr	r1, .L119+16
 908 00f8 0D48     		ldr	r0, .L119+12
 909 00fa FFF7FEFF 		bl	extract_line_width
 910              	.LVL89:
 911 00fe 134B     		ldr	r3, .L119+40
 912 0100 1880     		strh	r0, [r3]	@ movhi
ARM GAS  C:\Users\basil\AppData\Local\Temp\ccHpV48s.s 			page 17


 913              		.loc 1 252 0
 914 0102 DAE7     		b	.L103
 915              	.L101:
 916              	.LVL90:
 917              		.loc 1 240 0
 918 0104 0A4A     		ldr	r2, .L119+12
 919 0106 0B49     		ldr	r1, .L119+16
 920 0108 0F48     		ldr	r0, .L119+36
 921 010a FFF7FEFF 		bl	extract_line_width
 922              	.LVL91:
 923 010e 0F4B     		ldr	r3, .L119+40
 924 0110 1880     		strh	r0, [r3]	@ movhi
 925              		.loc 1 241 0
 926 0112 D2E7     		b	.L103
 927              	.LVL92:
 928              	.L100:
 929              		.loc 1 248 0
 930 0114 064A     		ldr	r2, .L119+12
 931 0116 0C49     		ldr	r1, .L119+36
 932 0118 0648     		ldr	r0, .L119+16
 933 011a FFF7FEFF 		bl	extract_line_width
 934              	.LVL93:
 935 011e 0B4B     		ldr	r3, .L119+40
 936 0120 1880     		strh	r0, [r3]	@ movhi
 937              		.loc 1 249 0
 938 0122 CAE7     		b	.L103
 939              	.L120:
 940              		.align	2
 941              	.L119:
 942 0124 00000000 		.word	ch
 943 0128 00000000 		.word	__stack_chk_guard
 944 012c 00000000 		.word	.LANCHOR5
 945 0130 00000000 		.word	.LANCHOR7
 946 0134 00000000 		.word	.LANCHOR8
 947 0138 00000000 		.word	.LANCHOR9
 948 013c 0040C444 		.word	1153712128
 949 0140 00000000 		.word	.LANCHOR13
 950 0144 00004842 		.word	1112014848
 951 0148 00000000 		.word	.LANCHOR6
 952 014c 00000000 		.word	.LANCHOR11
 953 0150 00000000 		.word	.LANCHOR12
 954 0154 00000000 		.word	.LANCHOR10
 955 0158 00000000 		.word	.LANCHOR1
 956              		.cfi_endproc
 957              	.LFE261:
 958              		.size	ProcessImage, .-ProcessImage
 959              		.section	.text.get_distance_cm,"ax",%progbits
 960              		.align	1
 961              		.p2align 4,,15
 962              		.global	get_distance_cm
 963              		.syntax unified
 964              		.thumb
 965              		.thumb_func
 966              		.fpu fpv4-sp-d16
 967              		.type	get_distance_cm, %function
 968              	get_distance_cm:
 969              	.LFB262:
ARM GAS  C:\Users\basil\AppData\Local\Temp\ccHpV48s.s 			page 18


 970              		.loc 1 272 0
 971              		.cfi_startproc
 972              		@ args = 0, pretend = 0, frame = 8
 973              		@ frame_needed = 0, uses_anonymous_args = 0
 974 0000 00B5     		push	{lr}
 975              		.cfi_def_cfa_offset 4
 976              		.cfi_offset 14, -4
 977 0002 084B     		ldr	r3, .L125
 978              		.loc 1 273 0
 979 0004 0849     		ldr	r1, .L125+4
 980              		.loc 1 272 0
 981 0006 1A68     		ldr	r2, [r3]
 982              		.loc 1 274 0
 983 0008 91ED000A 		vldr.32	s0, [r1]
 984              		.loc 1 272 0
 985 000c 83B0     		sub	sp, sp, #12
 986              		.cfi_def_cfa_offset 16
 987              		.loc 1 272 0
 988 000e 0192     		str	r2, [sp, #4]
 989              		.loc 1 274 0
 990 0010 019A     		ldr	r2, [sp, #4]
 991 0012 1B68     		ldr	r3, [r3]
 992 0014 9A42     		cmp	r2, r3
 993 0016 02D1     		bne	.L124
 994 0018 03B0     		add	sp, sp, #12
 995              		.cfi_remember_state
 996              		.cfi_def_cfa_offset 4
 997              		@ sp needed
 998 001a 5DF804FB 		ldr	pc, [sp], #4
 999              	.L124:
 1000              		.cfi_restore_state
 1001 001e FFF7FEFF 		bl	__stack_chk_fail
 1002              	.LVL94:
 1003              	.L126:
 1004 0022 00BF     		.align	2
 1005              	.L125:
 1006 0024 00000000 		.word	__stack_chk_guard
 1007 0028 00000000 		.word	.LANCHOR12
 1008              		.cfi_endproc
 1009              	.LFE262:
 1010              		.size	get_distance_cm, .-get_distance_cm
 1011              		.section	.text.get_line_position,"ax",%progbits
 1012              		.align	1
 1013              		.p2align 4,,15
 1014              		.global	get_line_position
 1015              		.syntax unified
 1016              		.thumb
 1017              		.thumb_func
 1018              		.fpu fpv4-sp-d16
 1019              		.type	get_line_position, %function
 1020              	get_line_position:
 1021              	.LFB263:
 1022              		.loc 1 276 0
 1023              		.cfi_startproc
 1024              		@ args = 0, pretend = 0, frame = 8
 1025              		@ frame_needed = 0, uses_anonymous_args = 0
 1026 0000 00B5     		push	{lr}
ARM GAS  C:\Users\basil\AppData\Local\Temp\ccHpV48s.s 			page 19


 1027              		.cfi_def_cfa_offset 4
 1028              		.cfi_offset 14, -4
 1029 0002 074B     		ldr	r3, .L131
 1030              		.loc 1 277 0
 1031 0004 0749     		ldr	r1, .L131+4
 1032              		.loc 1 276 0
 1033 0006 1A68     		ldr	r2, [r3]
 1034              		.loc 1 278 0
 1035 0008 0888     		ldrh	r0, [r1]
 1036              		.loc 1 276 0
 1037 000a 83B0     		sub	sp, sp, #12
 1038              		.cfi_def_cfa_offset 16
 1039              		.loc 1 276 0
 1040 000c 0192     		str	r2, [sp, #4]
 1041              		.loc 1 278 0
 1042 000e 019A     		ldr	r2, [sp, #4]
 1043 0010 1B68     		ldr	r3, [r3]
 1044 0012 9A42     		cmp	r2, r3
 1045 0014 02D1     		bne	.L130
 1046 0016 03B0     		add	sp, sp, #12
 1047              		.cfi_remember_state
 1048              		.cfi_def_cfa_offset 4
 1049              		@ sp needed
 1050 0018 5DF804FB 		ldr	pc, [sp], #4
 1051              	.L130:
 1052              		.cfi_restore_state
 1053 001c FFF7FEFF 		bl	__stack_chk_fail
 1054              	.LVL95:
 1055              	.L132:
 1056              		.align	2
 1057              	.L131:
 1058 0020 00000000 		.word	__stack_chk_guard
 1059 0024 00000000 		.word	.LANCHOR3
 1060              		.cfi_endproc
 1061              	.LFE263:
 1062              		.size	get_line_position, .-get_line_position
 1063              		.section	.text.get_color,"ax",%progbits
 1064              		.align	1
 1065              		.p2align 4,,15
 1066              		.global	get_color
 1067              		.syntax unified
 1068              		.thumb
 1069              		.thumb_func
 1070              		.fpu fpv4-sp-d16
 1071              		.type	get_color, %function
 1072              	get_color:
 1073              	.LFB264:
 1074              		.loc 1 280 0
 1075              		.cfi_startproc
 1076              		@ args = 0, pretend = 0, frame = 8
 1077              		@ frame_needed = 0, uses_anonymous_args = 0
 1078 0000 00B5     		push	{lr}
 1079              		.cfi_def_cfa_offset 4
 1080              		.cfi_offset 14, -4
 1081 0002 074B     		ldr	r3, .L137
 1082              		.loc 1 281 0
 1083 0004 0749     		ldr	r1, .L137+4
ARM GAS  C:\Users\basil\AppData\Local\Temp\ccHpV48s.s 			page 20


 1084              		.loc 1 280 0
 1085 0006 1A68     		ldr	r2, [r3]
 1086              		.loc 1 282 0
 1087 0008 0878     		ldrb	r0, [r1]	@ zero_extendqisi2
 1088              		.loc 1 280 0
 1089 000a 83B0     		sub	sp, sp, #12
 1090              		.cfi_def_cfa_offset 16
 1091              		.loc 1 280 0
 1092 000c 0192     		str	r2, [sp, #4]
 1093              		.loc 1 282 0
 1094 000e 019A     		ldr	r2, [sp, #4]
 1095 0010 1B68     		ldr	r3, [r3]
 1096 0012 9A42     		cmp	r2, r3
 1097 0014 02D1     		bne	.L136
 1098 0016 03B0     		add	sp, sp, #12
 1099              		.cfi_remember_state
 1100              		.cfi_def_cfa_offset 4
 1101              		@ sp needed
 1102 0018 5DF804FB 		ldr	pc, [sp], #4
 1103              	.L136:
 1104              		.cfi_restore_state
 1105 001c FFF7FEFF 		bl	__stack_chk_fail
 1106              	.LVL96:
 1107              	.L138:
 1108              		.align	2
 1109              	.L137:
 1110 0020 00000000 		.word	__stack_chk_guard
 1111 0024 00000000 		.word	.LANCHOR10
 1112              		.cfi_endproc
 1113              	.LFE264:
 1114              		.size	get_color, .-get_color
 1115              		.section	.text.process_image_start,"ax",%progbits
 1116              		.align	1
 1117              		.p2align 4,,15
 1118              		.global	process_image_start
 1119              		.syntax unified
 1120              		.thumb
 1121              		.thumb_func
 1122              		.fpu fpv4-sp-d16
 1123              		.type	process_image_start, %function
 1124              	process_image_start:
 1125              	.LFB265:
 1126              		.loc 1 288 0
 1127              		.cfi_startproc
 1128              		@ args = 0, pretend = 0, frame = 8
 1129              		@ frame_needed = 0, uses_anonymous_args = 0
 1130 0000 30B5     		push	{r4, r5, lr}
 1131              		.cfi_def_cfa_offset 12
 1132              		.cfi_offset 4, -12
 1133              		.cfi_offset 5, -8
 1134              		.cfi_offset 14, -4
 1135 0002 0E4C     		ldr	r4, .L143
 1136              		.loc 1 289 0
 1137 0004 0E4B     		ldr	r3, .L143+4
 1138              		.loc 1 288 0
 1139 0006 2268     		ldr	r2, [r4]
 1140              		.loc 1 289 0
ARM GAS  C:\Users\basil\AppData\Local\Temp\ccHpV48s.s 			page 21


 1141 0008 0E48     		ldr	r0, .L143+8
 1142              		.loc 1 288 0
 1143 000a 85B0     		sub	sp, sp, #20
 1144              		.cfi_def_cfa_offset 32
 1145              		.loc 1 289 0
 1146 000c 0025     		movs	r5, #0
 1147              		.loc 1 288 0
 1148 000e 0392     		str	r2, [sp, #12]
 1149              		.loc 1 289 0
 1150 0010 41F27811 		movw	r1, #4472
 1151 0014 4022     		movs	r2, #64
 1152 0016 0095     		str	r5, [sp]
 1153 0018 FFF7FEFF 		bl	chThdCreateStatic
 1154              	.LVL97:
 1155              		.loc 1 290 0
 1156 001c 0A4B     		ldr	r3, .L143+12
 1157 001e 0095     		str	r5, [sp]
 1158 0020 4022     		movs	r2, #64
 1159 0022 0A48     		ldr	r0, .L143+16
 1160 0024 4FF41E71 		mov	r1, #632
 1161 0028 FFF7FEFF 		bl	chThdCreateStatic
 1162              	.LVL98:
 1163              		.loc 1 291 0
 1164 002c 039A     		ldr	r2, [sp, #12]
 1165 002e 2368     		ldr	r3, [r4]
 1166 0030 9A42     		cmp	r2, r3
 1167 0032 01D1     		bne	.L142
 1168 0034 05B0     		add	sp, sp, #20
 1169              		.cfi_remember_state
 1170              		.cfi_def_cfa_offset 12
 1171              		@ sp needed
 1172 0036 30BD     		pop	{r4, r5, pc}
 1173              	.L142:
 1174              		.cfi_restore_state
 1175 0038 FFF7FEFF 		bl	__stack_chk_fail
 1176              	.LVL99:
 1177              	.L144:
 1178              		.align	2
 1179              	.L143:
 1180 003c 00000000 		.word	__stack_chk_guard
 1181 0040 00000000 		.word	ProcessImage
 1182 0044 00000000 		.word	waProcessImage
 1183 0048 00000000 		.word	CaptureImage
 1184 004c 00000000 		.word	.LANCHOR14
 1185              		.cfi_endproc
 1186              	.LFE265:
 1187              		.size	process_image_start, .-process_image_start
 1188              		.section	.bss.color_memory,"aw",%nobits
 1189              		.set	.LANCHOR10,. + 0
 1190              		.type	color_memory, %object
 1191              		.size	color_memory, 1
 1192              	color_memory:
 1193 0000 00       		.space	1
 1194              		.section	.bss.image_blue.11445,"aw",%nobits
 1195              		.align	2
 1196              		.set	.LANCHOR7,. + 0
 1197              		.type	image_blue.11445, %object
ARM GAS  C:\Users\basil\AppData\Local\Temp\ccHpV48s.s 			page 22


 1198              		.size	image_blue.11445, 640
 1199              	image_blue.11445:
 1200 0000 00000000 		.space	640
 1200      00000000 
 1200      00000000 
 1200      00000000 
 1200      00000000 
 1201              		.section	.bss.image_green.11446,"aw",%nobits
 1202              		.align	2
 1203              		.set	.LANCHOR8,. + 0
 1204              		.type	image_green.11446, %object
 1205              		.size	image_green.11446, 640
 1206              	image_green.11446:
 1207 0000 00000000 		.space	640
 1207      00000000 
 1207      00000000 
 1207      00000000 
 1207      00000000 
 1208              		.section	.bss.image_red.11444,"aw",%nobits
 1209              		.align	2
 1210              		.set	.LANCHOR6,. + 0
 1211              		.type	image_red.11444, %object
 1212              		.size	image_red.11444, 640
 1213              	image_red.11444:
 1214 0000 00000000 		.space	640
 1214      00000000 
 1214      00000000 
 1214      00000000 
 1214      00000000 
 1215              		.section	.bss.lineWidth.11447,"aw",%nobits
 1216              		.align	1
 1217              		.set	.LANCHOR11,. + 0
 1218              		.type	lineWidth.11447, %object
 1219              		.size	lineWidth.11447, 2
 1220              	lineWidth.11447:
 1221 0000 0000     		.space	2
 1222              		.section	.bss.process_image_current_state,"aw",%nobits
 1223              		.set	.LANCHOR9,. + 0
 1224              		.type	process_image_current_state, %object
 1225              		.size	process_image_current_state, 1
 1226              	process_image_current_state:
 1227 0000 00       		.space	1
 1228              		.section	.bss.waCaptureImage,"aw",%nobits
 1229              		.align	3
 1230              		.set	.LANCHOR14,. + 0
 1231              		.type	waCaptureImage, %object
 1232              		.size	waCaptureImage, 632
 1233              	waCaptureImage:
 1234 0000 00000000 		.space	632
 1234      00000000 
 1234      00000000 
 1234      00000000 
 1234      00000000 
 1235              		.section	.bss.waProcessImage,"aw",%nobits
 1236              		.align	3
 1237              		.type	waProcessImage, %object
 1238              		.size	waProcessImage, 4472
ARM GAS  C:\Users\basil\AppData\Local\Temp\ccHpV48s.s 			page 23


 1239              	waProcessImage:
 1240 0000 00000000 		.space	4472
 1240      00000000 
 1240      00000000 
 1240      00000000 
 1240      00000000 
 1241              		.section	.data.distance_cm,"aw",%progbits
 1242              		.align	2
 1243              		.set	.LANCHOR12,. + 0
 1244              		.type	distance_cm, %object
 1245              		.size	distance_cm, 4
 1246              	distance_cm:
 1247 0000 00002041 		.word	1092616192
 1248              		.section	.data.image_ready_sem,"aw",%progbits
 1249              		.align	2
 1250              		.set	.LANCHOR1,. + 0
 1251              		.type	image_ready_sem, %object
 1252              		.size	image_ready_sem, 12
 1253              	image_ready_sem:
 1254 0000 00000000 		.word	image_ready_sem
 1255 0004 00000000 		.word	image_ready_sem
 1256 0008 00000000 		.word	0
 1257              		.section	.data.last_width.11406,"aw",%progbits
 1258              		.align	1
 1259              		.set	.LANCHOR4,. + 0
 1260              		.type	last_width.11406, %object
 1261              		.size	last_width.11406, 2
 1262              	last_width.11406:
 1263 0000 0B02     		.short	523
 1264              		.section	.data.line_position,"aw",%progbits
 1265              		.align	1
 1266              		.set	.LANCHOR3,. + 0
 1267              		.type	line_position, %object
 1268              		.size	line_position, 2
 1269              	line_position:
 1270 0000 4001     		.short	320
 1271              		.section	.data.send_to_computer.11448,"aw",%progbits
 1272              		.set	.LANCHOR13,. + 0
 1273              		.type	send_to_computer.11448, %object
 1274              		.size	send_to_computer.11448, 1
 1275              	send_to_computer.11448:
 1276 0000 01       		.byte	1
 1277              		.section	.rodata.__FUNCTION__.11436,"a",%progbits
 1278              		.align	2
 1279              		.set	.LANCHOR0,. + 0
 1280              		.type	__FUNCTION__.11436, %object
 1281              		.size	__FUNCTION__.11436, 13
 1282              	__FUNCTION__.11436:
 1283 0000 43617074 		.ascii	"CaptureImage\000"
 1283      75726549 
 1283      6D616765 
 1283      00
 1284              		.section	.rodata.__FUNCTION__.11442,"a",%progbits
 1285              		.align	2
 1286              		.set	.LANCHOR5,. + 0
 1287              		.type	__FUNCTION__.11442, %object
 1288              		.size	__FUNCTION__.11442, 13
ARM GAS  C:\Users\basil\AppData\Local\Temp\ccHpV48s.s 			page 24


 1289              	__FUNCTION__.11442:
 1290 0000 50726F63 		.ascii	"ProcessImage\000"
 1290      65737349 
 1290      6D616765 
 1290      00
 1291              		.section	.rodata.__func__.7153,"a",%progbits
 1292              		.align	2
 1293              		.set	.LANCHOR2,. + 0
 1294              		.type	__func__.7153, %object
 1295              		.size	__func__.7153, 12
 1296              	__func__.7153:
 1297 0000 63685379 		.ascii	"chSysUnlock\000"
 1297      73556E6C 
 1297      6F636B00 
 1298              		.text
 1299              	.Letext0:
 1300              		.file 6 "c:\\users\\basil\\documents\\tp_robotique\\eclipse_e-puck2\\tools\\gcc-arm-none-eabi-7-20
 1301              		.file 7 "c:\\users\\basil\\documents\\tp_robotique\\eclipse_e-puck2\\tools\\gcc-arm-none-eabi-7-20
 1302              		.file 8 "c:\\users\\basil\\documents\\tp_robotique\\eclipse_e-puck2\\tools\\gcc-arm-none-eabi-7-20
 1303              		.file 9 "../../lib/e-puck2_main-processor/ChibiOS//os/rt/ports/ARMCMx/compilers/GCC/chtypes.h"
 1304              		.file 10 "../../lib/e-puck2_main-processor/ChibiOS//os/rt/include/chsystypes.h"
 1305              		.file 11 "../../lib/e-puck2_main-processor/ChibiOS//os/rt/include/chschd.h"
 1306              		.file 12 "../../lib/e-puck2_main-processor/ChibiOS//os/ext/CMSIS/include/core_cm4.h"
 1307              		.file 13 "../../lib/e-puck2_main-processor/ChibiOS//os/ext/CMSIS/ST/system_stm32f4xx.h"
 1308              		.file 14 "../../lib/e-puck2_main-processor/ChibiOS//os/ext/CMSIS/ST/stm32f407xx.h"
 1309              		.file 15 "../../lib/e-puck2_main-processor/ChibiOS//os/rt/ports/ARMCMx/chcore.h"
 1310              		.file 16 "../../lib/e-puck2_main-processor/ChibiOS//os/rt/ports/ARMCMx/chcore_v7m.h"
 1311              		.file 17 "../../lib/e-puck2_main-processor/ChibiOS//os/rt/include/chdebug.h"
 1312              		.file 18 "../../lib/e-puck2_main-processor/ChibiOS//os/rt/include/chtm.h"
 1313              		.file 19 "../../lib/e-puck2_main-processor/ChibiOS//os/rt/include/chstats.h"
 1314              		.file 20 "../../lib/e-puck2_main-processor/ChibiOS//os/rt/include/chsem.h"
 1315              		.file 21 "../../lib/e-puck2_main-processor/ChibiOS//os/rt/include/chmtx.h"
 1316              		.file 22 "../../lib/e-puck2_main-processor/ChibiOS//os/rt/include/chevents.h"
 1317              		.file 23 "../../lib/e-puck2_main-processor/ChibiOS//os/rt/include/chqueues.h"
 1318              		.file 24 "../../lib/e-puck2_main-processor/ChibiOS//os/hal/ports/STM32/STM32F4xx/stm32_dma.h"
 1319              		.file 25 "../../lib/e-puck2_main-processor/ChibiOS//os/hal/include/hal_ioblock.h"
 1320              		.file 26 "../../lib/e-puck2_main-processor/ChibiOS//os/hal/ports/STM32/LLD/GPIOv2/pal_lld.h"
 1321              		.file 27 "../../lib/e-puck2_main-processor/ChibiOS//os/hal/include/adc.h"
 1322              		.file 28 "../../lib/e-puck2_main-processor/ChibiOS//os/hal/ports/STM32/STM32F4xx/adc_lld.h"
 1323              		.file 29 "../../lib/e-puck2_main-processor/ChibiOS//os/hal/include/can.h"
 1324              		.file 30 "../../lib/e-puck2_main-processor/ChibiOS//os/hal/ports/STM32/LLD/can_lld.h"
 1325              		.file 31 "../../lib/e-puck2_main-processor/ChibiOS//os/hal/include/dac.h"
 1326              		.file 32 "../../lib/e-puck2_main-processor/ChibiOS//os/hal/ports/STM32/LLD/DACv1/dac_lld.h"
 1327              		.file 33 "../../lib/e-puck2_main-processor/ChibiOS//os/hal/include/ext.h"
 1328              		.file 34 "../../lib/e-puck2_main-processor/ChibiOS//os/hal/ports/STM32/LLD/ext_lld.h"
 1329              		.file 35 "../../lib/e-puck2_main-processor/ChibiOS//os/hal/include/gpt.h"
 1330              		.file 36 "../../lib/e-puck2_main-processor/ChibiOS//os/hal/ports/STM32/LLD/TIMv1/gpt_lld.h"
 1331              		.file 37 "../../lib/e-puck2_main-processor/ChibiOS//os/hal/ports/STM32/LLD/TIMv1/stm32_tim.h"
 1332              		.file 38 "../../lib/e-puck2_main-processor/ChibiOS//os/hal/include/i2c.h"
 1333              		.file 39 "../../lib/e-puck2_main-processor/ChibiOS//os/hal/ports/STM32/LLD/I2Cv1/i2c_lld.h"
 1334              		.file 40 "../../lib/e-puck2_main-processor/ChibiOS//os/hal/include/i2s.h"
 1335              		.file 41 "../../lib/e-puck2_main-processor/ChibiOS//os/hal/ports/STM32/LLD/SPIv1/i2s_lld.h"
 1336              		.file 42 "../../lib/e-puck2_main-processor/ChibiOS//os/hal/include/pwm.h"
 1337              		.file 43 "../../lib/e-puck2_main-processor/ChibiOS//os/hal/ports/STM32/LLD/TIMv1/pwm_lld.h"
 1338              		.file 44 "../../lib/e-puck2_main-processor/ChibiOS//os/hal/include/serial.h"
 1339              		.file 45 "../../lib/e-puck2_main-processor/ChibiOS//os/hal/ports/STM32/LLD/USARTv1/serial_lld.h"
 1340              		.file 46 "../../lib/e-puck2_main-processor/ChibiOS//os/hal/include/sdc.h"
ARM GAS  C:\Users\basil\AppData\Local\Temp\ccHpV48s.s 			page 25


 1341              		.file 47 "../../lib/e-puck2_main-processor/ChibiOS//os/hal/ports/STM32/LLD/sdc_lld.h"
 1342              		.file 48 "../../lib/e-puck2_main-processor/ChibiOS//os/hal/include/spi.h"
 1343              		.file 49 "../../lib/e-puck2_main-processor/ChibiOS//os/hal/ports/STM32/LLD/SPIv1/spi_lld.h"
 1344              		.file 50 "../../lib/e-puck2_main-processor/ChibiOS//os/hal/include/usb.h"
 1345              		.file 51 "../../lib/e-puck2_main-processor/ChibiOS//os/hal/ports/STM32/LLD/OTGv1/usb_lld.h"
 1346              		.file 52 "../../lib/e-puck2_main-processor/ChibiOS//os/hal/ports/STM32/LLD/OTGv1/stm32_otg.h"
 1347              		.file 53 "../../lib/e-puck2_main-processor/ChibiOS//os/hal/include/serial_usb.h"
 1348              		.file 54 "../../lib/e-puck2_main-processor/src/usbcfg.h"
 1349              		.file 55 "../../lib/e-puck2_main-processor/ChibiOS_ext/os/hal/include/../ports/STM32/STM32F4xx/dcm
 1350              		.file 56 "../../lib/e-puck2_main-processor/src/camera/po8030.h"
 1351              		.file 57 "../../lib/e-puck2_main-processor/src/camera/dcmi_camera.h"
 1352              		.file 58 "c:\\users\\basil\\documents\\tp_robotique\\eclipse_e-puck2\\tools\\gcc-arm-none-eabi-7-2
 1353              		.file 59 "c:\\users\\basil\\documents\\tp_robotique\\eclipse_e-puck2\\tools\\gcc-arm-none-eabi-7-2
 1354              		.file 60 "c:\\users\\basil\\documents\\tp_robotique\\eclipse_e-puck2\\tools\\gcc-arm-none-eabi-7-2
 1355              		.file 61 "../../lib/e-puck2_main-processor/src/msgbus/messagebus.h"
 1356              		.file 62 "c:\\users\\basil\\documents\\tp_robotique\\eclipse_e-puck2\\tools\\gcc-arm-none-eabi-7-2
 1357              		.file 63 "c:\\users\\basil\\documents\\tp_robotique\\eclipse_e-puck2\\tools\\gcc-arm-none-eabi-7-2
 1358              		.file 64 "../../lib/e-puck2_main-processor/src/parameter/parameter.h"
 1359              		.file 65 "./main.h"
 1360              		.file 66 "../../lib/e-puck2_main-processor/src/leds.h"
 1361              		.file 67 "../../lib/e-puck2_main-processor/ChibiOS//os/rt/include/chthreads.h"